C51 COMPILER V9.51   COMMAND_PROCESSING                                                    02/07/2017 16:12:02 PAGE 1   


C51 COMPILER V9.51, COMPILATION OF MODULE COMMAND_PROCESSING
OBJECT MODULE PLACED IN .\DP8051_Keil_951\Release\command_processing.obj
COMPILER INVOKED BY: C:\Program Files (x86)\Cypress\PSoC Creator\4.0\PSoC Creator\import\keil\pk51\9.51\C51\BIN\c51.exe 
                    -command_processing.c NOIV LARGE MODDP2 OMF2 VB(1) NOIP INCDIR(.,Generated_Source\PSoC3) FF(3) DB DF(NDEBUG) WL(2) PR(.\D
                    -P8051_Keil_951\Release/command_processing.lst) CD OT(8,SPEED) OJ(.\DP8051_Keil_951\Release\command_processing.obj)

line level    source

*** MESSAGE C286 IN LINE 0 OF (null): license limits optimization to level 5
   1          // ----------------------------------------------------------------------------
   2          // Copyright (C)  qbrobotics. All rights reserved.
   3          // www.qbrobotics.com
   4          // ----------------------------------------------------------------------------
   5          
   6          
   7          /**
   8          * \file         command_processing.c
   9          *
  10          
  11          * \brief        Command processing functions.
  12          * \date         Dic. 1, 2015
  13          * \author       qbrobotics
  14          * \copyright    (C)  qbrobotics. All rights reserved.
  15          */
  16          
  17          //=================================================================     includes
  18          #include <command_processing.h>
  19          #include <stdio.h>
  20          #include <interruptions.h>
  21          #include <utils.h>
  22          
  23          #include "commands.h"
  24          
  25          //================================================================     variables
  26          
  27          reg8 * EEPROM_ADDR = (reg8 *) CYDEV_EE_BASE;
  28          
  29          //==============================================================================
  30          //                                                            RX DATA PROCESSING
  31          //==============================================================================
  32          //  This function checks for the availability of a data packet and process it:
  33          //      - Verify checksum;
  34          //      - Process commands;
  35          //==============================================================================
  36          
  37          void commProcess(){
  38   1          
  39   1          uint8 CYDATA rx_cmd;
  40   1      
  41   1          rx_cmd = g_rx.buffer[0];
  42   1      
  43   1      //==========================================================     verify checksum
  44   1      
  45   1          if (!(LCRChecksum(g_rx.buffer, g_rx.length - 1) == g_rx.buffer[g_rx.length - 1])){
  46   2              // Wrong checksum
  47   2              g_rx.ready = 0;
  48   2              return;
  49   2          }
  50   1      
  51   1          switch(rx_cmd){
  52   2      //=====================================================     CMD_GET_MEASUREMENTS
C51 COMPILER V9.51   COMMAND_PROCESSING                                                    02/07/2017 16:12:02 PAGE 2   

  53   2      
  54   2              case CMD_GET_MEASUREMENTS:
  55   2                  cmd_get_measurements();
  56   2                  break;
  57   2                  
  58   2      //============================================================     CMD_GET_INPUT
  59   2      
  60   2              case CMD_GET_INPUTS:
  61   2                  cmd_get_inputs();
  62   2                  break;
  63   2      //=========================================================     CMD_GET_CURRENTS
  64   2      
  65   2              case CMD_GET_CURRENTS:
  66   2                  cmd_get_currents();
  67   2                  break;
  68   2      
  69   2      //====================================================     CMD_GET_CURR_AND_MEAS
  70   2      
  71   2              case CMD_GET_CURR_AND_MEAS:
  72   2                  cmd_get_curr_and_meas();
  73   2                  break;
  74   2                  
  75   2      //===========================================================     CMD_SET_INPUTS
  76   2      
  77   2              case CMD_SET_INPUTS:
  78   2                  cmd_set_inputs();
  79   2                  break;
  80   2                  
  81   2      //========================================================     CMD_SET_POS_STIFF
  82   2      
  83   2              case CMD_SET_POS_STIFF:
  84   2                  cmd_set_pos_stiff();
  85   2                  break;
  86   2                  
  87   2      //=======================================================     CMD_GET_VELOCITIES
  88   2      
  89   2              case CMD_GET_VELOCITIES:
  90   2                  cmd_get_velocities();
  91   2                  break;
  92   2      
  93   2      //=========================================================     CMD_GET_JOYSTICK
  94   2      
  95   2              case CMD_GET_JOYSTICK:
  96   2                  cmd_get_joystick();
  97   2                  break;
  98   2      
  99   2      //==============================================================     CMD_GET_EMG
 100   2      
 101   2              case CMD_GET_EMG:
 102   2                  cmd_get_emg();
 103   2                  break;
 104   2      
 105   2      //=============================================================     CMD_ACTIVATE
 106   2      
 107   2              case CMD_ACTIVATE:
 108   2                  cmd_activate();
 109   2                  break;
 110   2                  
 111   2      //=============================================================     CMD_WATCHDOG
 112   2                  
 113   2              case CMD_SET_WATCHDOG:
 114   2                  cmd_set_watchdog();
C51 COMPILER V9.51   COMMAND_PROCESSING                                                    02/07/2017 16:12:02 PAGE 3   

 115   2                  break;
 116   2                  
 117   2      //=========================================================     CMD_GET_ACTIVATE
 118   2                  
 119   2              case CMD_GET_ACTIVATE:
 120   2                  cmd_get_activate();
 121   2                  break;
 122   2                  
 123   2      //=========================================================     CMD_SET_BAUDRATE
 124   2                  
 125   2              case CMD_SET_BAUDRATE:
 126   2                  cmd_set_baudrate();
 127   2                  break;  
 128   2                  
 129   2      //=============================================================     CMD_GET_INFO
 130   2                  
 131   2              case CMD_GET_INFO:
 132   2                  infoGet( *((uint16 *) &g_rx.buffer[1]));
 133   2                  break;
 134   2      
 135   2      //============================================================     CMD_SET_PARAM
 136   2                  
 137   2              case CMD_SET_ZEROS:
 138   2                  setZeros();
 139   2                  break;
 140   2      
 141   2      //============================================================     CMD_GET_PARAM
 142   2                  
 143   2              case CMD_GET_PARAM_LIST:
 144   2                  get_param_list( *((uint16 *) &g_rx.buffer[1]));
 145   2                  break;
 146   2      
 147   2      //=================================================================     CMD_PING
 148   2                  
 149   2              case CMD_PING:
 150   2                  cmd_ping();
 151   2                  break;
 152   2      
 153   2      //=========================================================     CMD_STORE_PARAMS
 154   2                  
 155   2              case CMD_STORE_PARAMS:
 156   2                  cmd_store_params();
 157   2                  break;
 158   2      
 159   2      //=================================================     CMD_STORE_DEFAULT_PARAMS
 160   2                  
 161   2              case CMD_STORE_DEFAULT_PARAMS:
 162   2                  if ( memStore(DEFAULT_EEPROM_DISPLACEMENT) ) {
 163   3                      sendAcknowledgment(ACK_OK);
 164   3                  } else {
 165   3                      sendAcknowledgment(ACK_ERROR);
 166   3                  }
 167   2                  break;
 168   2      
 169   2      //=======================================================     CMD_RESTORE_PARAMS
 170   2      
 171   2              case CMD_RESTORE_PARAMS:
 172   2                  if ( memRestore() ) {
 173   3                      sendAcknowledgment(ACK_OK);
 174   3                  } else {
 175   3                      sendAcknowledgment(ACK_ERROR);
 176   3                  }
C51 COMPILER V9.51   COMMAND_PROCESSING                                                    02/07/2017 16:12:02 PAGE 4   

 177   2                  break;
 178   2      
 179   2      //=============================================================     CMD_INIT_MEM
 180   2      
 181   2              case CMD_INIT_MEM:
 182   2                  if ( memInit() ) {
 183   3                      sendAcknowledgment(ACK_OK);
 184   3                  } else {
 185   3                      sendAcknowledgment(ACK_ERROR);
 186   3                  }
 187   2                  break;
 188   2      
 189   2      //===========================================================     CMD_BOOTLOADER
 190   2              case CMD_BOOTLOADER:
 191   2                  sendAcknowledgment(ACK_OK);
 192   2                  CyDelay(1000);
 193   2                  FTDI_ENABLE_REG_Write(0x00);
 194   2                  CyDelay(1000);
 195   2                  Bootloadable_Load();
 196   2                  break;
 197   2      
 198   2      //============================================================     CMD_CALIBRATE
 199   2              case CMD_HAND_CALIBRATE:
 200   2                  calib.speed = *((int16 *) &g_rx.buffer[1]);
 201   2                  calib.repetitions = *((int16 *) &g_rx.buffer[3]);
 202   2                  
 203   2                  // Speed & repetitions saturations
 204   2                  if (calib.speed < 0) {
 205   3                      calib.speed = 0;
 206   3                  } else if (calib.speed > 200) {
 207   3                      calib.speed = 200;
 208   3                  }
 209   2                  if (calib.repetitions < 0) {
 210   3                      calib.repetitions = 0;
 211   3                  } else if (calib.repetitions > 32767) {
 212   3                      calib.repetitions = 32767;
 213   3                  }
 214   2                  
 215   2                  g_refNew.pos[0] = 0;
 216   2                  calib.enabled = TRUE;
 217   2                  break;
 218   2      
 219   2      //=========================================================== ALL OTHER COMMANDS
 220   2              default:
 221   2                  break;
 222   2          }
 223   1      }
 224          
 225          //==============================================================================
 226          //                                                              COMMAND GET INFO
 227          //==============================================================================
 228          
 229          void infoGet(uint16 info_type){
 230   1          unsigned char packet_string[1600];
 231   1      
 232   1      //======================================     choose info type and prepare string
 233   1      
 234   1          switch (info_type) {
 235   2              case INFO_ALL:
 236   2                  infoPrepare(packet_string);
 237   2                  UART_RS485_PutString(packet_string);
 238   2                  break;
C51 COMPILER V9.51   COMMAND_PROCESSING                                                    02/07/2017 16:12:02 PAGE 5   

 239   2              default:
 240   2                  break;
 241   2          }
 242   1      }
 243          
 244          //==============================================================================
 245          //                                                                     SET ZEROS
 246          //==============================================================================
 247          
 248          void setZeros()
 249          {
 250   1          uint8 CYDATA i;        // iterator
 251   1      
 252   1          for(i = 0; i < NUM_OF_SENSORS; ++i) {
 253   2              g_mem.m_off[i] = *((int16 *) &g_rx.buffer[1 + i * 2]);
 254   2              g_mem.m_off[i] = g_mem.m_off[i] << g_mem.res[i];
 255   2      
 256   2              g_meas.rot[i] = 0;
 257   2          }
 258   1          reset_last_value_flag = 1;
 259   1      
 260   1          sendAcknowledgment(ACK_OK);
 261   1      }
 262          
 263          //==============================================================================
 264          //                                                            GET PARAMETER LIST
 265          //==============================================================================
 266          
 267          void get_param_list(uint16 index)
 268          {
 269   1          //Package to be sent variables
 270   1          uint8 packet_data[1651] = "";
 271   1          uint16 packet_lenght = 1651;
 272   1      
 273   1          //Auxiliary variables
 274   1          uint16 CYDATA i;
 275   1          uint8 string_lenght;
 276   1          int32 aux_int;
 277   1          uint8 aux_uchar;
 278   1      
 279   1          //Parameters menu string definitions
 280   1          char id_str[15]             = "1 - Device ID:";
 281   1          char pos_pid_str[28]        = "2 - Position PID [P, I, D]:";
 282   1          char curr_pid_str[27]       = "3 - Current PID [P, I, D]:";
 283   1          char startup_str[28]        = "4 - Startup Activation:";
 284   1          char input_str[34]          = "5 - Input mode:";
 285   1          char contr_str[39]          = "6 - Control mode:";
 286   1          char res_str[17]            = "7 - Resolutions:";
 287   1          char m_off_str[25]          = "8 - Measurement Offsets:";
 288   1          char mult_str[17]           = "9 - Multipliers:";
 289   1          char pos_lim_flag_str[28]   = "10 - Pos. limit active:";
 290   1          char pos_lim_str[29]        = "11 - Pos. limits [inf, sup]:";
 291   1          char max_step_str[27]       = "12 - Max steps [neg, pos]:";
 292   1          char curr_limit_str[20]     = "13 - Current limit:";
 293   1          char emg_flag_str[37]       = "14 - EMG calibration on startup:";
 294   1          char emg_thr_str[21]        = "15 - EMG thresholds:";
 295   1          char emg_max_val_str[21]    = "16 - EMG max values:";
 296   1          char emg_max_speed_str[20]  = "17 - EMG max speed:";
 297   1          char abs_enc_str[36]        = "18 - Absolute encoder position:";
 298   1          char handle_ratio_str[25]   = "19 - Motor handle ratio:"; 
 299   1          char motor_type_str[24]     = "20 - PWM rescaling:";
 300   1          char curr_lookup_str[21]    = "21 - Current lookup:";
C51 COMPILER V9.51   COMMAND_PROCESSING                                                    02/07/2017 16:12:02 PAGE 6   

 301   1          char closure_speed_str[20]  = "22 - Closure speed:";
 302   1          char joystick_thr_str[26]   = "23 - Joystick thresholds:";
 303   1          char joystick_gains_str[21] = "24 - Joystick gains:";
 304   1      
 305   1          //Parameters menus
 306   1          char input_mode_menu[100] = "0 -> Usb\n1 -> Handle\n2 -> EMG prop.\n3 -> EMG Integ.\n4 -> EMG FCFS\n5 
             --> EMG FCFS Adv.\n6 -> Joystick\n";
 307   1          char control_mode_menu[59] = "0 -> Position\n1 -> PWM\n2 -> Current\n3 -> Position-Current\n";
 308   1          char yes_no_menu[42] = "0 -> Deactivate [NO]\n1 -> Activate [YES]\n";
 309   1      
 310   1          //Strings lenghts
 311   1          uint8 /*CYDATA*/ id_str_len = strlen(id_str);
 312   1          uint8 /*CYDATA*/ pos_pid_str_len = strlen(pos_pid_str);
 313   1          uint8 /*CYDATA*/ curr_pid_str_len = strlen(curr_pid_str);
 314   1      
 315   1          uint8 /*CYDATA*/ res_str_len = strlen(res_str);
 316   1          uint8 /*CYDATA*/ m_off_str_len = strlen(m_off_str);
 317   1          uint8 /*CYDATA*/ mult_str_len = strlen(mult_str);
 318   1      
 319   1          uint8 /*CYDATA*/ pos_lim_str_len = strlen(pos_lim_str);
 320   1          uint8 /*CYDATA*/ max_step_str_len = strlen(max_step_str);
 321   1          uint8 /*CYDATA*/ curr_limit_str_len = strlen(curr_limit_str);
 322   1      
 323   1          uint8 /*CYDATA*/ emg_thr_str_len = strlen(emg_thr_str);
 324   1          uint8 /*CYDATA*/ emg_max_val_str_len = strlen(emg_max_val_str);
 325   1          uint8 /*CYDATA*/ emg_max_speed_str_len = strlen(emg_max_speed_str);
 326   1      
 327   1          uint8 /*CYDATA*/ handle_ratio_str_len = strlen(handle_ratio_str);
 328   1          uint8 /*CYDATA*/ curr_lookup_str_len = strlen(curr_lookup_str);
 329   1      
 330   1          uint8 /*CYDATA*/ closure_speed_str_len = strlen(closure_speed_str);
 331   1          uint8 /*CYDATA*/ joystick_thr_str_len = strlen(joystick_thr_str);
 332   1          uint8 /*CYDATA*/ joystick_gains_str_len = strlen(joystick_gains_str);
 333   1      
 334   1          uint8 /*CYDATA*/ input_mode_menu_len = strlen(input_mode_menu);
 335   1          uint8 /*CYDATA*/ control_mode_menu_len = strlen(control_mode_menu);
 336   1          uint8 /*CYDATA*/ yes_no_menu_len = strlen(yes_no_menu);
 337   1      
 338   1          packet_data[0] = CMD_GET_PARAM_LIST;
 339   1          packet_data[1] = NUM_OF_PARAMS;
 340   1      
 341   1          switch(index) {
 342   2              case 0:         //List of all parameters with relative types
 343   2                  /*-----------------ID-----------------*/
 344   2      
 345   2                  packet_data[2] = TYPE_UINT8;
 346   2                  packet_data[3] = 1;
 347   2                  packet_data[4] = c_mem.id;
 348   2                  for(i = id_str_len; i != 0; i--)
 349   2                      packet_data[5 + id_str_len - i] = id_str[id_str_len - i];
 350   2      
 351   2                  /*-------------POSITION PID-----------*/
 352   2      
 353   2                  packet_data[52] = TYPE_FLOAT;
 354   2                  packet_data[53] = 3;
 355   2                  if(c_mem.control_mode != CURR_AND_POS_CONTROL) {
 356   3                      *((float *) (packet_data + 54)) = (float) c_mem.k_p / 65536;
 357   3                      *((float *) (packet_data + 58)) = (float) c_mem.k_i / 65536;
 358   3                      *((float *) (packet_data + 62)) = (float) c_mem.k_d / 65536;
 359   3                  }
 360   2                  else {
 361   3                      *((float *) (packet_data + 54)) = (float) c_mem.k_p_dl / 65536;
C51 COMPILER V9.51   COMMAND_PROCESSING                                                    02/07/2017 16:12:02 PAGE 7   

 362   3                      *((float *) (packet_data + 58)) = (float) c_mem.k_i_dl / 65536;
 363   3                      *((float *) (packet_data + 62)) = (float) c_mem.k_d_dl / 65536;
 364   3                  }
 365   2      
 366   2                  for(i = pos_pid_str_len; i != 0; i--)
 367   2                      packet_data[66 + pos_pid_str_len - i] = pos_pid_str[pos_pid_str_len - i];
 368   2      
 369   2                  /*--------------CURRENT PID-----------*/
 370   2      
 371   2                  packet_data[102] = TYPE_FLOAT;
 372   2                  packet_data[103] = 3;
 373   2                  if(c_mem.control_mode != CURR_AND_POS_CONTROL) {
 374   3                      *((float *) (packet_data + 104)) = (float) c_mem.k_p_c / 65536;
 375   3                      *((float *) (packet_data + 108)) = (float) c_mem.k_i_c / 65536;
 376   3                      *((float *) (packet_data + 112)) = (float) c_mem.k_d_c / 65536;
 377   3                  }
 378   2                  else {
 379   3                      *((float *) (packet_data + 104)) = (float) c_mem.k_p_c_dl / 65536;
 380   3                      *((float *) (packet_data + 108)) = (float) c_mem.k_i_c_dl / 65536;
 381   3                      *((float *) (packet_data + 112)) = (float) c_mem.k_d_c_dl / 65536;
 382   3                  }
 383   2                  
 384   2                  for(i = curr_pid_str_len; i != 0; i--)
 385   2                      packet_data[116 + curr_pid_str_len - i] = curr_pid_str[curr_pid_str_len - i];
 386   2      
 387   2                  /*----------STARTUP ACTIVATION--------*/
 388   2      
 389   2                  packet_data[152] = TYPE_FLAG;
 390   2                  packet_data[153] = 1;
 391   2                  packet_data[154] = c_mem.activ;
 392   2                  if(c_mem.activ) {
 393   3                      strcat(startup_str, " YES\0");
 394   3                      string_lenght = 28;
 395   3                  }
 396   2                  else {
 397   3                      strcat(startup_str, " NO\0");
 398   3                      string_lenght = 27;
 399   3                  }
 400   2                  for(i = string_lenght; i != 0; i--)
 401   2                      packet_data[155 + string_lenght - i] = startup_str[string_lenght - i];
 402   2                  //The following byte indicates the number of menus at the end of the packet to send
 403   2                  packet_data[155 + string_lenght] = 3;
 404   2      
 405   2                  /*--------------INPUT MODE------------*/
 406   2                  
 407   2                  packet_data[202] = TYPE_FLAG;
 408   2                  packet_data[203] = 1;
 409   2                  packet_data[204] = c_mem.input_mode;
 410   2                  switch(c_mem.input_mode) {
 411   3                      case INPUT_MODE_EXTERNAL:
 412   3                          strcat(input_str, " Usb\0");
 413   3                          string_lenght = 20;
 414   3                      break;
 415   3                      case INPUT_MODE_ENCODER3:
 416   3                          strcat(input_str, " Handle\0");
 417   3                          string_lenght = 23;
 418   3                      break;
 419   3                      case INPUT_MODE_EMG_PROPORTIONAL:
 420   3                          strcat(input_str, " EMG proportional\0");
 421   3                          string_lenght = 33;
 422   3                      break;
 423   3                      case INPUT_MODE_EMG_INTEGRAL:
C51 COMPILER V9.51   COMMAND_PROCESSING                                                    02/07/2017 16:12:02 PAGE 8   

 424   3                          strcat(input_str, " EMG integral\0");
 425   3                          string_lenght = 29;
 426   3                      break;
 427   3                      case INPUT_MODE_EMG_FCFS:
 428   3                          strcat(input_str, " EMG FCFS\0");
 429   3                          string_lenght = 25;
 430   3                      break;
 431   3                      case INPUT_MODE_EMG_FCFS_ADV:
 432   3                          strcat(input_str, " EMG FCFS Advanced\0");
 433   3                          string_lenght = 34;
 434   3                      break;
 435   3                      case INPUT_MODE_JOYSTICK:
 436   3                          strcat(input_str, " Joystick\0");
 437   3                          string_lenght = 25;
 438   3                      break;    
 439   3                  }
 440   2                  for(i = string_lenght; i != 0; i--)
 441   2                      packet_data[205 + string_lenght - i] = input_str[string_lenght - i];
 442   2                  //The following byte indicates the number of menus at the end of the packet to send
 443   2                  packet_data[205 + string_lenght] = 1;
 444   2                  
 445   2                  /*-------------CONTROL MODE-----------*/
 446   2                  
 447   2                  packet_data[252] = TYPE_FLAG;
 448   2                  packet_data[253] = 1;
 449   2                  packet_data[254] = c_mem.control_mode;
 450   2                  switch(c_mem.control_mode){
 451   3                      case CONTROL_ANGLE:
 452   3                          strcat(contr_str, " Position\0");
 453   3                          string_lenght = 27;
 454   3                      break;
 455   3                      case CONTROL_PWM:
 456   3                          strcat(contr_str, " PWM\0");
 457   3                          string_lenght = 22;
 458   3                      break;
 459   3                      case CONTROL_CURRENT:
 460   3                          strcat(contr_str, " Current\0");
 461   3                          string_lenght = 26;
 462   3                      break;
 463   3                      case CURR_AND_POS_CONTROL:
 464   3                          strcat(contr_str, " Position and Current\0");
 465   3                          string_lenght = 39;
 466   3                      break;
 467   3                  }
 468   2                  for(i = string_lenght; i != 0; i--)
 469   2                      packet_data[255 + string_lenght - i] = contr_str[string_lenght - i];
 470   2                  //The following byte indicates the number of menus at the end of the packet to send
 471   2                  packet_data[255 + string_lenght] = 2;
 472   2                  
 473   2                  /*-------------RESOLUTIONS------------*/
 474   2                  
 475   2                  packet_data[302] = TYPE_UINT8;
 476   2                  packet_data[303] = NUM_OF_SENSORS;
 477   2                  for(i = 0; i < NUM_OF_SENSORS; i++)
 478   2                      packet_data[i + 304] = c_mem.res[i];
 479   2                  for(i = res_str_len; i != 0; i--)
 480   2                      packet_data[304 + NUM_OF_SENSORS * sizeof(uint8) + res_str_len - i] = res_str[res_str_len 
             -- i];
 481   2                  
 482   2                  /*----------MEASUREMENT OFFSET--------*/
 483   2                  
 484   2                  packet_data[352] = TYPE_INT16;
C51 COMPILER V9.51   COMMAND_PROCESSING                                                    02/07/2017 16:12:02 PAGE 9   

 485   2                  packet_data[353] = NUM_OF_SENSORS;
 486   2                  for(i = 0; i < NUM_OF_SENSORS; i++) 
 487   2                      *((int16 *) ( packet_data + 354 + (i * 2) )) = (int16) (c_mem.m_off[i] >> c_mem.res[i]);
 488   2                  for(i = m_off_str_len; i != 0; i--)
 489   2                      packet_data[354 + NUM_OF_SENSORS * sizeof(int16) + m_off_str_len - i] = m_off_str[m_off_st
             -r_len - i];
 490   2                  
 491   2                  /*------------MULTIPLIERS-------------*/
 492   2                  
 493   2                  packet_data[402] = TYPE_FLOAT;
 494   2                  packet_data[403] = NUM_OF_SENSORS;
 495   2                  for(i = 0; i < NUM_OF_SENSORS; i++)
 496   2                      *((float *) ( packet_data + 404 + (i * 4) )) = c_mem.m_mult[i];
 497   2                  for(i = mult_str_len; i != 0; i--)
 498   2                      packet_data[404 + NUM_OF_SENSORS * sizeof(float) + mult_str_len - i] = mult_str[mult_str_l
             -en - i];
 499   2      
 500   2                  /*-----------POS LIMIT FLAG-----------*/
 501   2                  
 502   2                  packet_data[452] = TYPE_FLAG;
 503   2                  packet_data[453] = 1;
 504   2                  packet_data[454] = c_mem.pos_lim_flag;
 505   2                  if(c_mem.pos_lim_flag) {
 506   3                      strcat(pos_lim_flag_str, " YES\0");
 507   3                      string_lenght = 28;
 508   3                  }
 509   2                  else {
 510   3                      strcat(pos_lim_flag_str, " NO\0");
 511   3                      string_lenght = 27;
 512   3                  }
 513   2                  for(i = string_lenght; i != 0; i--)
 514   2                      packet_data[455 + string_lenght - i] = pos_lim_flag_str[string_lenght - i];
 515   2                  //The following byte indicates the number of menus at the end of the packet to send
 516   2                  packet_data[455 + string_lenght] = 3;
 517   2                  
 518   2                  /*-----------POSITION LIMITS----------*/
 519   2                  
 520   2                  packet_data[502] = TYPE_INT32;
 521   2                  packet_data[503] = NUM_OF_MOTORS * 2;
 522   2                  for (i = 0; i < NUM_OF_MOTORS * 2 - 1; i++) {
 523   3                      *((int32 *)( packet_data + 504 + (i * 2 * 4))) = (c_mem.pos_lim_inf[i] >> c_mem.res[i]);
 524   3                      *((int32 *)( packet_data + 504 + (i * 2 * 4) + 4)) = (c_mem.pos_lim_sup[i] >> c_mem.res[i]
             -);
 525   3                  }
 526   2                  for(i = pos_lim_str_len; i != 0; i--)
 527   2                      packet_data[520 + pos_lim_str_len - i] = pos_lim_str[pos_lim_str_len - i];
 528   2      
 529   2                  /*--------------MAX STEPS-------------*/
 530   2                  
 531   2                  packet_data[552] = TYPE_INT32;
 532   2                  packet_data[553] = 2;
 533   2                  *((int32 *)(packet_data + 554)) = c_mem.max_step_neg;
 534   2                  *((int32 *)(packet_data + 558)) = c_mem.max_step_pos;
 535   2                  for(i = max_step_str_len; i != 0; i--)
 536   2                      packet_data[562 + max_step_str_len - i] = max_step_str[max_step_str_len - i];
 537   2      
 538   2                  /*------------CURRENT LIMIT-----------*/
 539   2      
 540   2                  packet_data[602] = TYPE_INT16;
 541   2                  packet_data[603] = 1;
 542   2                  *((int16 *)(packet_data + 604)) = c_mem.current_limit;
 543   2                  for(i = curr_limit_str_len; i != 0; i--)
C51 COMPILER V9.51   COMMAND_PROCESSING                                                    02/07/2017 16:12:02 PAGE 10  

 544   2                      packet_data[606 + curr_limit_str_len - i] = curr_limit_str[curr_limit_str_len - i];
 545   2      
 546   2                  /*-----------EMG CALIB FLAG-----------*/            
 547   2                  
 548   2                  packet_data[652] = TYPE_FLAG;
 549   2                  packet_data[653] = 1;
 550   2                  packet_data[654] = c_mem.emg_calibration_flag;
 551   2                  if(c_mem.emg_calibration_flag) {
 552   3                      strcat(emg_flag_str, " YES\0");
 553   3                      string_lenght = 37;
 554   3                  }
 555   2                  else {
 556   3                      strcat(emg_flag_str, " NO\0");
 557   3                      string_lenght = 36;
 558   3                  }
 559   2                  for(i = string_lenght; i != 0; i--)
 560   2                      packet_data[655 + string_lenght - i] = emg_flag_str[string_lenght - i];
 561   2                  //The following byte indicates the number of menus at the end of the packet to send
 562   2                  packet_data[655 + string_lenght] = 3;
 563   2                  
 564   2                  /*-----------EMG THRESHOLDS-----------*/
 565   2              
 566   2                  packet_data[702] = TYPE_UINT16;
 567   2                  packet_data[703] = NUM_OF_EMGS;
 568   2                  *((uint16 *)(packet_data + 704)) = c_mem.emg_threshold[0];
 569   2                  *((uint16 *)(packet_data + 706)) = c_mem.emg_threshold[1];
 570   2                  for(i = emg_thr_str_len; i != 0; i--)
 571   2                      packet_data[708 + emg_thr_str_len - i] = emg_thr_str[emg_thr_str_len - i];
 572   2                  
 573   2                  /*------------EMG MAX VALUE-----------*/
 574   2                  
 575   2                  packet_data[752] = TYPE_UINT32;
 576   2                  packet_data[753] = NUM_OF_EMGS;
 577   2                  *((uint32 *)(packet_data + 754)) = c_mem.emg_max_value[0];
 578   2                  *((uint32 *)(packet_data + 758)) = c_mem.emg_max_value[1];
 579   2                  for(i = emg_max_val_str_len; i != 0; i--)
 580   2                      packet_data[762 + emg_max_val_str_len - i] = emg_max_val_str[emg_max_val_str_len - i];
 581   2      
 582   2                  /*--------------EMG SPEED-------------*/
 583   2                  
 584   2                  packet_data[802] = TYPE_UINT8;
 585   2                  packet_data[803] = 1;
 586   2                  packet_data[804] = c_mem.emg_speed;
 587   2                  for(i = emg_max_speed_str_len; i != 0; i--)
 588   2                      packet_data[805 + emg_max_speed_str_len - i] = emg_max_speed_str[emg_max_speed_str_len - i
             -];
 589   2                  
 590   2                  /*------------DOUBLE ENCODER----------*/
 591   2                  
 592   2                  packet_data[852] = TYPE_FLAG;
 593   2                  packet_data[853] = 1;
 594   2                  packet_data[854] = c_mem.double_encoder_on_off;
 595   2                  if(c_mem.double_encoder_on_off) {
 596   3                      strcat(abs_enc_str, " YES\0");
 597   3                      string_lenght = 36;
 598   3                  }
 599   2                  else {
 600   3                      strcat(abs_enc_str, " NO\0");
 601   3                      string_lenght = 35;
 602   3                  }
 603   2                  for(i = string_lenght; i != 0; i--)
 604   2                      packet_data[855 + string_lenght - i] = abs_enc_str[string_lenght - i];
C51 COMPILER V9.51   COMMAND_PROCESSING                                                    02/07/2017 16:12:02 PAGE 11  

 605   2                  //The following byte indicates the number of menus at the end of the packet to send
 606   2                  packet_data[855 + string_lenght] = 3;
 607   2                  
 608   2                  /*-------------HANDLE RATIO-----------*/
 609   2                  
 610   2                  packet_data[902] = TYPE_INT8;
 611   2                  packet_data[903] = 1;
 612   2                  *((int8 *)(packet_data + 904)) = c_mem.motor_handle_ratio;
 613   2                  for(i = handle_ratio_str_len; i != 0; i--)
 614   2                      packet_data[905 + handle_ratio_str_len - i] = handle_ratio_str[handle_ratio_str_len - i];
 615   2                  
 616   2                  /*-------------MOTOR SUPPLY-----------*/
 617   2                  
 618   2                  packet_data[952] = TYPE_FLAG;
 619   2                  packet_data[953] = 1;
 620   2                  packet_data[954] = c_mem.activate_pwm_rescaling;
 621   2                  if(c_mem.activate_pwm_rescaling) {
 622   3                      strcat(motor_type_str, " YES\0");
 623   3                      string_lenght = 24;
 624   3                  }
 625   2                  else {
 626   3                      strcat(motor_type_str, " NO\0");
 627   3                      string_lenght = 23;
 628   3                  }
 629   2                  for(i = string_lenght; i != 0; i--)
 630   2                      packet_data[955 + string_lenght - i] = motor_type_str[string_lenght - i];
 631   2                  //The following byte indicates the number of menus at the end of the packet to send
 632   2                  packet_data[955 + string_lenght] = 3;
 633   2      
 634   2                  /*---------CURRENT LOOKUP TABLE---------*/
 635   2      
 636   2                  packet_data[1002] = TYPE_FLOAT;
 637   2                  packet_data[1003] = LOOKUP_DIM;
 638   2                  for(i = 0; i < LOOKUP_DIM; i++)
 639   2                      *((float *) ( packet_data + 1004 + (i * 4) )) = c_mem.curr_lookup[i];
 640   2                  for(i = curr_lookup_str_len; i != 0; i--)
 641   2                      packet_data[1028 + curr_lookup_str_len - i] = curr_lookup_str[curr_lookup_str_len - i];
 642   2                  
 643   2                  /*-------------CLOSURE SPEED------------*/
 644   2      
 645   2                  packet_data[1052] = TYPE_UINT16;
 646   2                  packet_data[1053] = 1;
 647   2                  *((uint16 *) (packet_data + 1054)) = c_mem.closure_speed;
 648   2                  for(i = closure_speed_str_len; i != 0; i--)
 649   2                      packet_data[1056 + closure_speed_str_len - i] = closure_speed_str[closure_speed_str_len - 
             -i]; 
 650   2      
 651   2                  /*----------JOYSTICK THRESHOLD----------*/
 652   2      
 653   2                  packet_data[1102] = TYPE_INT16;
 654   2                  packet_data[1103] = 1;
 655   2                  *((int16 *) (packet_data + 1104)) = c_mem.joystick_threshold;
 656   2                  for(i = joystick_thr_str_len; i != 0; i--)
 657   2                      packet_data[1106 + joystick_thr_str_len - i] = joystick_thr_str[joystick_thr_str_len - i];
 658   2      
 659   2                  /*------------JOYSTICK GAINS------------*/
 660   2      
 661   2                  packet_data[1152] = TYPE_UINT16;
 662   2                  packet_data[1153] = 2;
 663   2                  *((uint16 *) packet_data + 1154) = c_mem.joystick_gains[0];
 664   2                  *((uint16 *) packet_data + 1156) = c_mem.joystick_gains[1];
 665   2                  for(i = joystick_gains_str_len; i != 0; i--)
C51 COMPILER V9.51   COMMAND_PROCESSING                                                    02/07/2017 16:12:02 PAGE 12  

 666   2                      packet_data[1158 + joystick_gains_str_len - i] = joystick_gains_str[joystick_gains_str_len
             - - i];
 667   2      
 668   2      
 669   2                  /*------------PARAMETERS MENU-----------*/
 670   2      
 671   2                  for(i = input_mode_menu_len; i != 0; i--)
 672   2                      packet_data[1202 + input_mode_menu_len - i] = input_mode_menu[input_mode_menu_len - i];
 673   2      
 674   2                  for(i = control_mode_menu_len; i != 0; i--)
 675   2                      packet_data[1352 + control_mode_menu_len - i] = control_mode_menu[control_mode_menu_len - 
             -i];
 676   2      
 677   2                  for(i = yes_no_menu_len; i!= 0; i--)
 678   2                      packet_data[1502 + yes_no_menu_len - i] = yes_no_menu[yes_no_menu_len - i];
 679   2      
 680   2                  packet_data[packet_lenght - 1] = LCRChecksum(packet_data,packet_lenght - 1);
 681   2                  commWrite(packet_data, packet_lenght);
 682   2                  UART_RS485_ClearTxBuffer();
 683   2              break;
 684   2      
 685   2      //===================================================================     set_id
 686   2              case 1:         //ID - uint8
 687   2                  g_mem.id = g_rx.buffer[3];
 688   2              break;
 689   2              
 690   2      //=======================================================     set_pid_parameters
 691   2              case 2:         //Position PID - float[3]
 692   2                  if(c_mem.control_mode != CURR_AND_POS_CONTROL) {
 693   3                      g_mem.k_p = *((float *) &g_rx.buffer[3]) * 65536;
 694   3                      g_mem.k_i = *((float *) &g_rx.buffer[3 + 4]) * 65536;
 695   3                      g_mem.k_d = *((float *) &g_rx.buffer[3 + 8]) * 65536;
 696   3                  }
 697   2                  else {
 698   3                      g_mem.k_p_dl = *((float *) &g_rx.buffer[3]) * 65536;
 699   3                      g_mem.k_i_dl = *((float *) &g_rx.buffer[3 + 4]) * 65536;
 700   3                      g_mem.k_d_dl = *((float *) &g_rx.buffer[3 + 8]) * 65536;
 701   3                  }
 702   2              break;
 703   2      
 704   2      //==================================================     set_curr_pid_parameters
 705   2              case 3:         //Current PID - float[3]
 706   2                  if(c_mem.control_mode != CURR_AND_POS_CONTROL) {
 707   3                      g_mem.k_p_c = *((float *) &g_rx.buffer[3]) * 65536;
 708   3                      g_mem.k_i_c = *((float *) &g_rx.buffer[3 + 4]) * 65536;
 709   3                      g_mem.k_d_c = *((float *) &g_rx.buffer[3 + 8]) * 65536;
 710   3                  }
 711   2                  else {
 712   3                      g_mem.k_p_c_dl = *((float *) &g_rx.buffer[3]) * 65536;
 713   3                      g_mem.k_i_c_dl = *((float *) &g_rx.buffer[3 + 4]) * 65536;
 714   3                      g_mem.k_d_c_dl = *((float *) &g_rx.buffer[3 + 8]) * 65536;
 715   3                  }
 716   2                  
 717   2              break;
 718   2      
 719   2      //===================================================     set_startup_activation        
 720   2              case 4:         //Startup flag - uint8
 721   2                  if(g_rx.buffer[3])
 722   2                      g_mem.activ = 0x03;
 723   2                  else
 724   2                      g_mem.activ = 0x00;
 725   2              break;
C51 COMPILER V9.51   COMMAND_PROCESSING                                                    02/07/2017 16:12:02 PAGE 13  

 726   2      
 727   2      //===========================================================     set_input_mode        
 728   2              case 5:         //Input mode - uint8
 729   2                  g_mem.input_mode = g_rx.buffer[3];
 730   2              break;
 731   2              
 732   2      //=========================================================     set_control_mode
 733   2              case 6:         //Control mode - uint8
 734   2                  g_mem.control_mode = g_rx.buffer[3];
 735   2              break;
 736   2              
 737   2      //===========================================================     set_resolution
 738   2              case 7:         //Resolution - uint8[3]
 739   2                  for (i =0; i < NUM_OF_SENSORS; i++) {
 740   3                      g_mem.res[i] = g_rx.buffer[i+3];
 741   3                  }
 742   2              break;
 743   2              
 744   2      //===============================================================     set_offset
 745   2              case 8:         //Measurement Offset - int32[3] 
 746   2                  for(i = 0; i < NUM_OF_SENSORS; ++i) {
 747   3                      g_mem.m_off[i] = *((int16 *) &g_rx.buffer[3 + i * 2]);
 748   3                      g_mem.m_off[i] = g_mem.m_off[i] << g_mem.res[i];
 749   3      
 750   3                      g_meas.rot[i] = 0;
 751   3                  }
 752   2                  reset_last_value_flag = 1;
 753   2              break;
 754   2              
 755   2      //===========================================================     set_multiplier
 756   2              case 9:         //Multipliers - float[3]
 757   2                  for(i = 0; i < NUM_OF_SENSORS; ++i)
 758   2                      g_mem.m_mult[i] = *((float *) &g_rx.buffer[3 + i * 4]);
 759   2              break;
 760   2              
 761   2      //=====================================================     set_pos_limit_enable
 762   2              case 10:        //Position limit flag - uint8
 763   2                  g_mem.pos_lim_flag = *((uint8 *) &g_rx.buffer[3]);
 764   2              break;
 765   2      
 766   2      //============================================================     set_pos_limit
 767   2              case 11:        //Position limits - int32[4]
 768   2                  for (i = 0; i < NUM_OF_MOTORS; i++) {
 769   3                      g_mem.pos_lim_inf[i] = *((int32 *) &g_rx.buffer[3 + (i * 2 * 4)]);
 770   3                      g_mem.pos_lim_sup[i] = *((int32 *) &g_rx.buffer[3 + (i * 2 * 4) + 4]);
 771   3      
 772   3                      g_mem.pos_lim_inf[i] = g_mem.pos_lim_inf[i] << g_mem.res[i];
 773   3                      g_mem.pos_lim_sup[i] = g_mem.pos_lim_sup[i] << g_mem.res[i];
 774   3                  }
 775   2              break;
 776   2      
 777   2      //==================================================     set_max_steps_per_cycle
 778   2              case 12:        //Max steps - int32[2]
 779   2                  aux_int = *((int32 *) &g_rx.buffer[3]);
 780   2                  if (aux_int <= 0)
 781   2                      g_mem.max_step_neg = aux_int;
 782   2      
 783   2                  aux_int = *((int32 *) &g_rx.buffer[3 + 4]);
 784   2                  if (aux_int >= 0) 
 785   2                      g_mem.max_step_pos = aux_int;
 786   2                  
 787   2              break;
C51 COMPILER V9.51   COMMAND_PROCESSING                                                    02/07/2017 16:12:02 PAGE 14  

 788   2              
 789   2      //========================================================     set_current_limit
 790   2              case 13:        //Current limit - int16
 791   2                  g_mem.current_limit = *((int16*) &g_rx.buffer[3]);
 792   2              break;
 793   2              
 794   2      //=======================================================     set_emg_calib_flag
 795   2              case 14:        //Emg calibration flag - int8
 796   2                  g_mem.emg_calibration_flag = *((uint8*) &g_rx.buffer[3]);
 797   2              break;
 798   2              
 799   2      //========================================================     set_emg_threshold
 800   2              case 15:        //Emg threshold - uint16[2]
 801   2                  g_mem.emg_threshold[0] = *((uint16*) &g_rx.buffer[3]);
 802   2                  g_mem.emg_threshold[1] = *((uint16*) &g_rx.buffer[5]);
 803   2              break;
 804   2              
 805   2      //========================================================     set_emg_max_value
 806   2              case 16:        //Emg max value - uint32[2]
 807   2                  g_mem.emg_max_value[0] = *((uint32*) &g_rx.buffer[3]);
 808   2                  g_mem.emg_max_value[1] = *((uint32*) &g_rx.buffer[7]);
 809   2              break;
 810   2              
 811   2      //============================================================     set_emg_speed
 812   2              case 17:        //Emg max speed - uint8
 813   2                  g_mem.emg_speed = *((uint8*) &g_rx.buffer[3]);
 814   2              break;
 815   2              
 816   2      //================================================     set_double_encoder_on_off
 817   2              case 18:        //Absolute encoder flag - uint8
 818   2                  aux_uchar = *((uint8*) &g_rx.buffer[3]);
 819   2                  if (aux_uchar) {
 820   3                      g_mem.double_encoder_on_off = 1;
 821   3                  } else {
 822   3                      g_mem.double_encoder_on_off = 0;
 823   3                  }
 824   2              break;
 825   2              
 826   2      //===================================================     set_motor_handle_ratio
 827   2              case 19:        //Motor handle ratio - int8
 828   2                  g_mem.motor_handle_ratio = *((int8*) &g_rx.buffer[3]);
 829   2              break;
 830   2              
 831   2      //===================================================     set_motor_supply_type
 832   2              case 20:        //Motor type - uint8
 833   2                  g_mem.activate_pwm_rescaling = g_rx.buffer[3];
 834   2              break;
 835   2      
 836   2      //===================================================     set_curr_lookup_table
 837   2              case 21:        //Current lookup table - float
 838   2                  for(i = 0; i < LOOKUP_DIM; i++)
 839   2                      g_mem.curr_lookup[i] = *((float *) &g_rx.buffer[3 + i*4]);
 840   2              break;
 841   2      
 842   2      //===================================================     set_closure_speed
 843   2              case 22:
 844   2                  g_mem.closure_speed = *((uint16 *) &g_rx.buffer[3]);
 845   2              break;
 846   2      
 847   2      //===================================================     set_joystick_threshold
 848   2              case 23:
 849   2                  g_mem.joystick_threshold = *((int16 *) &g_rx.buffer[3]);
C51 COMPILER V9.51   COMMAND_PROCESSING                                                    02/07/2017 16:12:02 PAGE 15  

 850   2              break;
 851   2      
 852   2      //===================================================     set_joystick_gains
 853   2              case 24:
 854   2                  g_mem.joystick_gains[0] = *((uint16 *) &g_rx.buffer[3]);
 855   2                  g_mem.joystick_gains[1] = *((uint16 *) &g_rx.buffer[5]);
 856   2              break;
 857   2      
 858   2          }
 859   1      }
 860          
 861          //==============================================================================
 862          //                                                           PREPARE DEVICE INFO
 863          //==============================================================================
 864          
 865          void infoPrepare(unsigned char *info_string)
 866          {
 867   1          int CYDATA i;
 868   1      
 869   1          unsigned char str[50];
 870   1          
 871   1          strcpy(info_string, "");
 872   1          strcat(info_string, "\r\n");
 873   1          strcat(info_string, "Firmware version: ");
 874   1          strcat(info_string, VERSION);
 875   1          strcat(info_string, ".\r\n\r\n");
 876   1      
 877   1          strcat(info_string,"DEVICE INFO\r\n");
 878   1          sprintf(str,"ID: %d\r\n",(int) c_mem.id);
 879   1          strcat(info_string,str);
 880   1          strcat(info_string, "PWM rescaling activation: ");
 881   1          if(c_mem.activate_pwm_rescaling == MAXON_12V)
 882   1              strcat(info_string, "YES\n");
 883   1          else
 884   1              strcat(info_string, "NO\n");
 885   1      
 886   1          sprintf(str,"PWM Limit: %d\r\n",(int) dev_pwm_limit);
 887   1          strcat(info_string,str);
 888   1          strcat(info_string,"\r\n");
 889   1      
 890   1          strcat(info_string, "MOTOR INFO\r\n");
 891   1          strcat(info_string, "Motor references: ");
 892   1          
 893   1          for (i = 0; i < NUM_OF_MOTORS; i++) {
 894   2              sprintf(str, "%d ", (int)(g_refOld.pos[i] >> c_mem.res[i]));
 895   2              strcat(info_string,str);
 896   2          }
 897   1          strcat(info_string,"\r\n");
 898   1      
 899   1          sprintf(str, "Motor enabled: ");
 900   1          if (g_refOld.onoff & 0x03) {
 901   2              strcat(str,"YES\r\n");
 902   2          } else {
 903   2              strcat(str,"NO\r\n");
 904   2          }
 905   1          strcat(info_string, str);
 906   1      
 907   1      
 908   1          strcat(info_string,"\r\nMEASUREMENTS INFO\r\n");
 909   1          strcat(info_string, "Sensor value:\r\n");
 910   1          for (i = 0; i < NUM_OF_SENSORS; i++) {
 911   2              sprintf(str,"%d -> %d", i+1,
C51 COMPILER V9.51   COMMAND_PROCESSING                                                    02/07/2017 16:12:02 PAGE 16  

 912   2                  (int)(g_measOld.pos[i] >> c_mem.res[i]));
 913   2              strcat(info_string, str);
 914   2              strcat(info_string, "\r\n");
 915   2          }
 916   1          sprintf(str,"Voltage (mV): %ld", (int32) dev_tension );
 917   1          strcat(info_string, str);
 918   1          strcat(info_string,"\r\n");
 919   1      
 920   1          sprintf(str,"Current 1 (mA): %ld", (int32) g_measOld.curr[0]);
 921   1          strcat(info_string, str);
 922   1          strcat(info_string,"\r\n");
 923   1      
 924   1          sprintf(str,"Current 2 (mA): %ld", (int32) g_measOld.curr[1]);
 925   1          strcat(info_string, str);
 926   1          strcat(info_string,"\r\n");
 927   1      
 928   1          sprintf(str, "Joystick measurements: %hd, %hd", g_measOld.joystick[0], g_measOld.joystick[1]);
 929   1          strcat(info_string, str);
 930   1          strcat(info_string, "\r\n");
 931   1      
 932   1          strcat(info_string, "\r\nDEVICE PARAMETERS\r\n");
 933   1      
 934   1          strcat(info_string, "PID Controller:\r\n");
 935   1          if(c_mem.control_mode != CURR_AND_POS_CONTROL) {
 936   2              sprintf(str,"P -> %f\r\n", ((double) c_mem.k_p / 65536));
 937   2              strcat(info_string, str);
 938   2              sprintf(str,"I -> %f\r\n", ((double) c_mem.k_i / 65536));
 939   2              strcat(info_string, str);
 940   2              sprintf(str,"D -> %f\r\n", ((double) c_mem.k_d / 65536));
 941   2              strcat(info_string, str);
 942   2          }
 943   1          else {
 944   2              sprintf(str,"P -> %f\r\n", ((double) c_mem.k_p_dl / 65536));
 945   2              strcat(info_string, str);
 946   2              sprintf(str,"I -> %f\r\n", ((double) c_mem.k_i_dl / 65536));
 947   2              strcat(info_string, str);
 948   2              sprintf(str,"D -> %f\r\n", ((double) c_mem.k_d_dl / 65536));
 949   2              strcat(info_string, str);
 950   2          }
 951   1      
 952   1          strcat(info_string, "Current PID Controller:\r\n");
 953   1          if(c_mem.control_mode != CURR_AND_POS_CONTROL) {
 954   2              sprintf(str,"P -> %f\r\n", ((double) c_mem.k_p_c / 65536));
 955   2              strcat(info_string, str);
 956   2              sprintf(str,"I -> %f\r\n", ((double) c_mem.k_i_c / 65536));
 957   2              strcat(info_string, str);
 958   2              sprintf(str,"D -> %f\r\n", ((double) c_mem.k_d_c / 65536));
 959   2              strcat(info_string, str);
 960   2          }
 961   1          else {
 962   2              sprintf(str,"P -> %f\r\n", ((double) c_mem.k_p_c_dl / 65536));
 963   2              strcat(info_string, str);
 964   2              sprintf(str,"I -> %f\r\n", ((double) c_mem.k_i_c_dl / 65536));
 965   2              strcat(info_string, str);
 966   2              sprintf(str,"D -> %f\r\n", ((double) c_mem.k_d_c_dl / 65536));
 967   2              strcat(info_string, str);
 968   2          }
 969   1      
 970   1          strcat(info_string,"\r\n");
 971   1      
 972   1          if (c_mem.activ == 0x03) {
 973   2              strcat(info_string, "Startup activation: YES\r\n");
C51 COMPILER V9.51   COMMAND_PROCESSING                                                    02/07/2017 16:12:02 PAGE 17  

 974   2          } else {
 975   2              strcat(info_string, "Startup activation: NO\r\n");
 976   2          }
 977   1      
 978   1          switch(c_mem.input_mode) {
 979   2              case INPUT_MODE_EXTERNAL:
 980   2                  strcat(info_string, "Input mode: USB\r\n");
 981   2                  break;
 982   2              case INPUT_MODE_ENCODER3:
 983   2                  strcat(info_string, "Input mode: Handle\r\n");
 984   2                  break;
 985   2              case INPUT_MODE_EMG_PROPORTIONAL:
 986   2                  strcat(info_string, "Input mode: EMG proportional\r\n");
 987   2                  break;
 988   2              case INPUT_MODE_EMG_INTEGRAL:
 989   2                  strcat(info_string, "Input mode: EMG integral\r\n");
 990   2                  break;
 991   2              case INPUT_MODE_EMG_FCFS:
 992   2                  strcat(info_string, "Input mode: EMG FCFS\r\n");
 993   2                  break;
 994   2              case INPUT_MODE_EMG_FCFS_ADV:
 995   2                  strcat(info_string, "Input mode: EMG FCFS ADV\r\n");
 996   2                  break;
 997   2              case INPUT_MODE_JOYSTICK:
 998   2                  strcat(info_string, "Input mode: Joystick\r\n");
 999   2                  break;
1000   2          }
1001   1          
1002   1          strcat(info_string, "Control Mode: ");
1003   1          switch(c_mem.control_mode) {
1004   2              case CONTROL_ANGLE:
1005   2                  strcat(info_string, "Position\r\n");
1006   2              break;
1007   2              case CONTROL_PWM:
1008   2                  strcat(info_string, "PWM\r\n");
1009   2                  break;
1010   2              case CONTROL_CURRENT:
1011   2                  strcat(info_string, "Current\r\n");
1012   2                  break;
1013   2              case CURR_AND_POS_CONTROL:
1014   2                  strcat(info_string, "Position and current\r\n");
1015   2                  break;
1016   2          }
1017   1      
1018   1          if (c_mem.double_encoder_on_off)
1019   1              strcat(info_string, "Absolute encoder position: YES\r\n");
1020   1          else
1021   1              strcat(info_string, "Absolute encoder position: NO\r\n");
1022   1      
1023   1          sprintf(str, "Motor-Handle Ratio: %d\r\n", (int)c_mem.motor_handle_ratio);
1024   1          strcat(info_string, str);
1025   1      
1026   1          strcat(info_string, "Sensor resolution:\r\n");
1027   1          for(i = 0; i < NUM_OF_SENSORS; ++i)
1028   1          {
1029   2              sprintf(str,"%d -> %d", (int) (i + 1),
1030   2                  (int) c_mem.res[i]);
1031   2              strcat(info_string, str);
1032   2              strcat(info_string,"\r\n");
1033   2          }
1034   1      
1035   1          strcat(info_string, "Measurement Offset:\r\n");
C51 COMPILER V9.51   COMMAND_PROCESSING                                                    02/07/2017 16:12:02 PAGE 18  

1036   1          for(i = 0; i < NUM_OF_SENSORS; ++i)
1037   1          {
1038   2              sprintf(str,"%d -> %ld", (int) (i + 1),
1039   2                  (int32) c_mem.m_off[i] >> c_mem.res[i]);
1040   2              strcat(info_string, str);
1041   2              strcat(info_string,"\r\n");
1042   2          }
1043   1      
1044   1          strcat(info_string, "Measurement Multiplier:\r\n");
1045   1          for(i = 0; i < NUM_OF_SENSORS; ++i)
1046   1          {
1047   2              sprintf(str,"%d -> %f", (int)(i + 1),
1048   2                  (double) c_mem.m_mult[i]);
1049   2              strcat(info_string, str);
1050   2              strcat(info_string,"\r\n");
1051   2          }
1052   1      
1053   1          sprintf(str, "Position limit active: %d", (int)c_mem.pos_lim_flag);
1054   1          strcat(info_string, str);
1055   1          strcat(info_string,"\r\n");
1056   1      
1057   1          for (i = 0; i < NUM_OF_MOTORS; i++) {
1058   2              sprintf(str, "Position limit motor %d: inf -> %ld  ", (int)(i + 1),
1059   2                      (int32)c_mem.pos_lim_inf[i] >> c_mem.res[i]);
1060   2              strcat(info_string, str);
1061   2      
1062   2              sprintf(str, "sup -> %ld\r\n",
1063   2                      (int32)c_mem.pos_lim_sup[i] >> c_mem.res[i]);
1064   2              strcat(info_string, str);
1065   2          }
1066   1      
1067   1          sprintf(str, "Max step pos and neg: %d %d", (int)c_mem.max_step_pos, (int)c_mem.max_step_neg);
1068   1          strcat(info_string, str);
1069   1          strcat(info_string, "\r\n");
1070   1      
1071   1          sprintf(str, "Current limit: %d", (int)c_mem.current_limit);
1072   1          strcat(info_string, str);
1073   1          strcat(info_string, "\r\n");
1074   1      
1075   1          strcat(info_string, "\r\n");
1076   1      
1077   1          sprintf(str, "Closure speed: %d", c_mem.closure_speed);
1078   1          strcat(info_string, str);
1079   1          strcat(info_string, "\r\n");
1080   1      
1081   1          sprintf(str, "Joystick Threshold: %d", c_mem.joystick_threshold);
1082   1          strcat(info_string, str);
1083   1          strcat(info_string, "\r\n");
1084   1          sprintf(str, "Joystick Gains - X:%hu  Y:%hu", c_mem.joystick_gains[0], c_mem.joystick_gains[1]);
1085   1          strcat(info_string, str);
1086   1          strcat(info_string, "\r\n");
1087   1      
1088   1          strcat(info_string, "\r\n");
1089   1      
1090   1          sprintf(str, "EMG thresholds [0 - 1024]: %u, %u", c_mem.emg_threshold[0], c_mem.emg_threshold[1]);
1091   1          strcat(info_string, str);
1092   1          strcat(info_string, "\r\n");
1093   1      
1094   1          sprintf(str, "EMG max values [0 - 4096]: %lu, %lu", c_mem.emg_max_value[0], c_mem.emg_max_value[1]);
1095   1          strcat(info_string, str);
1096   1          strcat(info_string, "\r\n");
1097   1      
C51 COMPILER V9.51   COMMAND_PROCESSING                                                    02/07/2017 16:12:02 PAGE 19  

1098   1          if (g_mem.emg_calibration_flag)
1099   1              strcat(info_string, "Calibration enabled: YES\r\n");
1100   1          else
1101   1              strcat(info_string, "Calibration enabled: NO\r\n");
1102   1      
1103   1          sprintf(str, "EMG max speed: %d", (int)c_mem.emg_speed);
1104   1          strcat(info_string, str);
1105   1          strcat(info_string, "\r\n");
1106   1          
1107   1          sprintf(str, "debug: %ld", (uint32) timer_value0 - (uint32) timer_value);
1108   1          strcat(info_string, str);
1109   1          strcat(info_string, "\r\n");
1110   1      }
1111          
1112          //==============================================================================
1113          //                                                     WRITE FUNCTIONS FOR RS485
1114          //==============================================================================
1115          
1116          void commWrite_old_id(uint8 *packet_data, uint16 packet_lenght, uint8 old_id)
1117          {
1118   1          uint16 CYDATA index;    // iterator
1119   1      
1120   1          // frame - start
1121   1          UART_RS485_PutChar(':');
1122   1          UART_RS485_PutChar(':');
1123   1          // frame - ID
1124   1          //if(old_id)
1125   1              UART_RS485_PutChar(old_id);
1126   1          //else
1127   1              //UART_RS485_PutChar(g_mem.id);
1128   1              
1129   1          // frame - length
1130   1          UART_RS485_PutChar((uint8)packet_lenght);
1131   1          // frame - packet data
1132   1          for(index = 0; index < packet_lenght; ++index) {
1133   2              UART_RS485_PutChar(packet_data[index]);
1134   2          }
1135   1      
1136   1          index = 0;
1137   1      
1138   1          while(!(UART_RS485_ReadTxStatus() & UART_RS485_TX_STS_COMPLETE) && index++ <= 1000){}
1139   1      
1140   1          RS485_CTS_Write(1);
1141   1          RS485_CTS_Write(0);
1142   1      }
1143          
1144          void commWrite(uint8 *packet_data,const uint16 packet_lenght)
1145          {
1146   1          uint16 CYDATA index;
1147   1      
1148   1          // frame - start
1149   1          UART_RS485_PutChar(':');
1150   1          UART_RS485_PutChar(':');
1151   1          
1152   1          // frame - ID
1153   1          UART_RS485_PutChar(g_mem.id);
1154   1          
1155   1          // frame - length
1156   1          UART_RS485_PutChar((uint8)packet_lenght);
1157   1          
1158   1          // frame - packet data
1159   1          for(index = 0; index < packet_lenght; ++index)
C51 COMPILER V9.51   COMMAND_PROCESSING                                                    02/07/2017 16:12:02 PAGE 20  

1160   1              UART_RS485_PutChar(packet_data[index]);
1161   1          
1162   1          index = 0;
1163   1      
1164   1          while(!(UART_RS485_ReadTxStatus() & UART_RS485_TX_STS_COMPLETE) && index++ <= 1000){}
1165   1      
1166   1          RS485_CTS_Write(1);
1167   1          RS485_CTS_Write(0);
1168   1      }
1169          
1170          //==============================================================================
1171          //                                                       ACKNOWLEDGMENT FUNCTION
1172          //==============================================================================
1173          
1174          void sendAcknowledgment(const uint8 value) {
1175   1      
1176   1          // Packet: header + crc
1177   1          
1178   1          uint8 CYDATA packet_data[2];
1179   1      
1180   1          // Header
1181   1          packet_data[0] = value;
1182   1          
1183   1          // Payload/CRC
1184   1          packet_data[1] = value;
1185   1      
1186   1          commWrite(packet_data, 2);
1187   1      }
1188          
1189          //==============================================================================
1190          //                                                                  STORE MEMORY
1191          //==============================================================================
1192          /**
1193          * This function stores current memory settings on the eeprom with the specified
1194          * displacement
1195          **/
1196          
1197          uint8 memStore(int displacement) {
1198   1      
1199   1          uint8 writeStatus;
1200   1          int i;
1201   1          int pages;
1202   1          uint8 ret_val = 1;
1203   1      
1204   1          PWM_MOTORS_WriteCompare1(0);
1205   1          PWM_MOTORS_WriteCompare2(0);
1206   1      
1207   1          // Retrieve temperature for better writing performance
1208   1          EEPROM_UpdateTemperature();
1209   1      
1210   1          memcpy( &c_mem, &g_mem, sizeof(g_mem) );
1211   1      
1212   1          pages = sizeof(g_mem) / 16 + (sizeof(g_mem) % 16 > 0);
1213   1      
1214   1          for(i = 0; i < pages; ++i) {
1215   2              writeStatus = EEPROM_Write(&g_mem.flag + 16 * i, i + displacement);
1216   2              if(writeStatus != CYRET_SUCCESS) {
1217   3                  ret_val = 0;
1218   3                  break;
1219   3              }
1220   2          }
1221   1      
C51 COMPILER V9.51   COMMAND_PROCESSING                                                    02/07/2017 16:12:02 PAGE 21  

1222   1          memcpy( &g_mem, &c_mem, sizeof(g_mem) );
1223   1      
1224   1          return ret_val;
1225   1      }
1226          
1227          
1228          //==============================================================================
1229          //                                                                 RECALL MEMORY
1230          //==============================================================================
1231          /**
1232          * This function loads user settings from the eeprom.
1233          **/
1234          
1235          void memRecall(void) {
1236   1      
1237   1          uint16 i;
1238   1      
1239   1          for (i = 0; i < sizeof(g_mem); i++) 
1240   1              ((reg8 *) &g_mem.flag)[i] = EEPROM_ADDR[i];
1241   1         
1242   1      
1243   1          //check for initialization
1244   1          if (g_mem.flag == FALSE) 
1245   1              memRestore();
1246   1          else 
1247   1              memcpy( &c_mem, &g_mem, sizeof(g_mem) );
1248   1          
1249   1      }
1250          
1251          
1252          //==============================================================================
1253          //                                                                RESTORE MEMORY
1254          //==============================================================================
1255          /**
1256          * This function loads default settings from the eeprom.
1257          **/
1258          
1259          uint8 memRestore(void) {
1260   1      
1261   1          uint16 i;
1262   1      
1263   1          for (i = 0; i < sizeof(g_mem); i++) 
1264   1              ((reg8 *) &g_mem.flag)[i] = EEPROM_ADDR[i + (DEFAULT_EEPROM_DISPLACEMENT * 16)];
1265   1          
1266   1      
1267   1          //check for initialization
1268   1          if (g_mem.flag == FALSE) 
1269   1              return memInit();
1270   1           else 
1271   1              return memStore(0);
1272   1         
1273   1      }
1274          
1275          //==============================================================================
1276          //                                                                   MEMORY INIT
1277          //==============================================================================
1278          /**
1279          * This function initialize memory when eeprom is compromised.
1280          **/
1281          
1282          uint8 memInit(void) {
1283   1      
C51 COMPILER V9.51   COMMAND_PROCESSING                                                    02/07/2017 16:12:02 PAGE 22  

1284   1          uint8 CYDATA i;
1285   1          //initialize memory settings
1286   1          g_mem.id                =   1;
1287   1          g_mem.k_p               =   0.01 * 65536;
1288   1          g_mem.k_i               =   0 * 65536;
1289   1          g_mem.k_d               =   0.007 * 65536;
1290   1          g_mem.k_p_c             =   1 * 65536;
1291   1          g_mem.k_i_c             =   0 * 65536;
1292   1          g_mem.k_d_c             =   0 * 65536;
1293   1      
1294   1          g_mem.k_p_dl            =   0 * 65536;
1295   1          g_mem.k_i_dl            =   0 * 65536;
1296   1          g_mem.k_d_dl            =   0 * 65536;
1297   1          g_mem.k_p_c_dl          =   0 * 65536;
1298   1          g_mem.k_i_c_dl          =   0 * 65536;
1299   1          g_mem.k_d_c_dl          =   0 * 65536;
1300   1          
1301   1          g_mem.activ             =   0;
1302   1          g_mem.input_mode        =   0;
1303   1          g_mem.control_mode      =   0;
1304   1          g_mem.watchdog_period   =   0; //MAX_WATCHDOG_TIMER;
1305   1      
1306   1          g_mem.pos_lim_flag = 1;
1307   1      
1308   1          g_mem.activate_pwm_rescaling = MAXON_24V;   
1309   1      
1310   1          for(i = 0; i < NUM_OF_SENSORS; ++i) {
1311   2              g_mem.m_mult[i] = 1.0;
1312   2              g_mem.res[i] = 3;
1313   2          }
1314   1      
1315   1          for (i = 0; i < NUM_OF_MOTORS; i++) {
1316   2              g_mem.pos_lim_inf[i] =  0;
1317   2              g_mem.pos_lim_sup[i] =  (int32) 19000 << g_mem.res[i];
1318   2          }
1319   1      
1320   1          g_mem.max_step_pos = 0;
1321   1          g_mem.max_step_neg = 0;
1322   1      
1323   1          g_mem.m_off[0] = (int32)0 << g_mem.res[0];
1324   1          g_mem.m_off[1] = (int32)0 << g_mem.res[1];
1325   1          g_mem.m_off[2] = (int32)0 << g_mem.res[2];
1326   1          #if (NUM_OF_SENSORS == 4)
1327   1              g_mem.m_off[3] = (int32)0 << g_mem.res[3];
1328   1          #endif
1329   1      
1330   1          g_mem.current_limit = DEFAULT_CURRENT_LIMIT;
1331   1      
1332   1          // EMG calibration not enabled by default
1333   1          g_mem.emg_calibration_flag = 0;
1334   1      
1335   1          g_mem.emg_max_value[0] = 0;
1336   1          g_mem.emg_max_value[1] = 0;
1337   1          g_mem.emg_threshold[0] = 100;
1338   1          g_mem.emg_threshold[1] = 100;
1339   1          g_mem.emg_speed = 100;
1340   1      
1341   1          g_mem.closure_speed = 150;
1342   1          g_mem.joystick_threshold = 100;
1343   1          g_mem.joystick_gains[0] = 1024;
1344   1          g_mem.joystick_gains[1] = 1024;
1345   1      
C51 COMPILER V9.51   COMMAND_PROCESSING                                                    02/07/2017 16:12:02 PAGE 23  

1346   1          g_mem.double_encoder_on_off = 1;
1347   1          g_mem.motor_handle_ratio = 22;
1348   1      
1349   1          //set the initialized flag to show EEPROM has been populated
1350   1          g_mem.flag = TRUE;
1351   1      
1352   1          //write that configuration to EEPROM
1353   1          return ( memStore(0) && memStore(DEFAULT_EEPROM_DISPLACEMENT) );
1354   1      }
1355          
1356          //==============================================================================
1357          //                                                    ROUTINE INTERRUPT FUNCTION
1358          //==============================================================================
1359          /**
1360          * Bunch of functions used on request from UART communication
1361          **/
1362          
1363          void cmd_get_measurements(){
1364   1          
1365   1          uint8 CYDATA index;
1366   1         
1367   1          // Packet: header + measure(int16) + crc
1368   1          
1369   1          #if (NUM_OF_SENSORS == 4)
1370   1              uint8 packet_data[10];
1371   1          #endif
1372   1          #if  (NUM_OF_SENSORS == 3)
                      uint8 packet_data[8]; 
                  #endif
1375   1      
1376   1          //Header package
1377   1          packet_data[0] = CMD_GET_MEASUREMENTS;   
1378   1          
1379   1          for (index = NUM_OF_SENSORS; index--;) 
1380   1              *((int16 *) &packet_data[(index << 1) + 1]) = (int16)(g_measOld.pos[index] >> g_mem.res[index]);
1381   1                  
1382   1          // Calculate Checksum and send message to UART 
1383   1              
1384   1          #if (NUM_OF_SENSORS == 4)
1385   1              packet_data[9] = LCRChecksum(packet_data, 9);
1386   1              commWrite(packet_data, 10);
1387   1          #endif
1388   1          #if  (NUM_OF_SENSORS == 3)
                      packet_data[7] = LCRChecksum(packet_data, 7);
                      commWrite(packet_data, 8);
                  #endif
1392   1          
1393   1      }
1394          
1395          void cmd_get_inputs(){
1396   1      
1397   1          // Packet: header + motor_measure(int16) + crc
1398   1      
1399   1          uint8 packet_data[6]; 
1400   1          
1401   1          //Header package
1402   1      
1403   1          packet_data[0] = CMD_GET_INPUTS;
1404   1          
1405   1          *((int16 *) &packet_data[1]) = (int16) (g_refOld.pos[0]  >> g_mem.res[0]);
1406   1          *((int16 *) &packet_data[3]) = (int16) (g_refOld.pos[1]  >> g_mem.res[1]);
1407   1          
C51 COMPILER V9.51   COMMAND_PROCESSING                                                    02/07/2017 16:12:02 PAGE 24  

1408   1          // Calculate Checksum and send message to UART 
1409   1      
1410   1          packet_data[5] = LCRChecksum(packet_data, 5);
1411   1      
1412   1          commWrite(packet_data, 6);
1413   1      
1414   1      }
1415          
1416          void cmd_get_currents(){
1417   1          
1418   1          // Packet: header + motor_measure(int16) + crc
1419   1          
1420   1          uint8 packet_data[6]; 
1421   1          
1422   1          //Header package
1423   1      
1424   1          packet_data[0] = CMD_GET_CURRENTS;
1425   1      
1426   1          *((int16 *) &packet_data[1]) = (int16) g_measOld.curr[0];
1427   1          *((int16 *) &packet_data[3]) = (int16) g_measOld.curr[1];
1428   1      
1429   1          // Calculate Checksum and send message to UART 
1430   1      
1431   1          packet_data[5] = LCRChecksum (packet_data, 5);
1432   1      
1433   1          commWrite(packet_data, 6);
1434   1      }
1435          
1436          void cmd_get_curr_and_meas(){
1437   1          
1438   1          uint8 CYDATA index;
1439   1         
1440   1          //Packet: header + curr_meas(int16) + pos_meas(int16) + CRC
1441   1          
1442   1          #if (NUM_OF_SENSORS == 4)
1443   1              uint8 packet_data[14];
1444   1          #endif
1445   1          #if  (NUM_OF_SENSORS == 3)
                      uint8 packet_data[12]; 
                  #endif
1448   1      
1449   1          //Header package
1450   1          packet_data[0] = CMD_GET_CURR_AND_MEAS;
1451   1          
1452   1          // Currents
1453   1          *((int16 *) &packet_data[1]) = (int16) g_measOld.curr[0];
1454   1          *((int16 *) &packet_data[3]) = (int16) g_measOld.curr[1];
1455   1      
1456   1          // Positions
1457   1          for (index = NUM_OF_SENSORS; index--;) 
1458   1              *((int16 *) &packet_data[(index << 2) + 5]) = (int16) (g_measOld.pos[index] >> g_mem.res[index]);
1459   1              
1460   1          // Calculate Checksum and send message to UART 
1461   1              
1462   1          #if (NUM_OF_SENSORS == 4)
1463   1              packet_data[13] = LCRChecksum(packet_data, 13);
1464   1              commWrite(packet_data, 14);
1465   1          #endif
1466   1          #if  (NUM_OF_SENSORS == 3)
                      packet_data[11] = LCRChecksum(packet_data, 11);
                      commWrite(packet_data, 12);
                  #endif
C51 COMPILER V9.51   COMMAND_PROCESSING                                                    02/07/2017 16:12:02 PAGE 25  

1470   1      }
1471          
1472          void cmd_set_inputs(){
1473   1          
1474   1          // Store position setted in right variables
1475   1          g_refNew.pos[0] = *((int16 *) &g_rx.buffer[1]);   // motor 1
1476   1          g_refNew.pos[0] = g_refNew.pos[0] << g_mem.res[0];
1477   1      
1478   1          g_refNew.pos[1] = *((int16 *) &g_rx.buffer[3]);   // motor 2
1479   1          g_refNew.pos[1] = g_refNew.pos[1] << g_mem.res[1];
1480   1      
1481   1          // Check Position Limit cmd
1482   1          if (c_mem.pos_lim_flag) {                      
1483   2              
1484   2              if (g_refNew.pos[0] < c_mem.pos_lim_inf[0]) 
1485   2                  g_refNew.pos[0] = c_mem.pos_lim_inf[0];
1486   2              if (g_refNew.pos[1] < c_mem.pos_lim_inf[1]) 
1487   2                  g_refNew.pos[1] = c_mem.pos_lim_inf[1];
1488   2      
1489   2              if (g_refNew.pos[0] > c_mem.pos_lim_sup[0]) 
1490   2                  g_refNew.pos[0] = c_mem.pos_lim_sup[0];
1491   2              if (g_refNew.pos[1] > c_mem.pos_lim_sup[1]) 
1492   2                  g_refNew.pos[1] = c_mem.pos_lim_sup[1];
1493   2          }
1494   1      }
1495          
1496          void cmd_set_pos_stiff(){
1497   1          
1498   1      }
1499          
1500          void cmd_get_velocities(){
1501   1          
1502   1          uint8 CYDATA index;
1503   1          
1504   1          // Packet: header + measure(int16) + crc
1505   1      
1506   1          #if (NUM_OF_SENSORS == 4)
1507   1              uint8 packet_data[10];
1508   1          #endif
1509   1          #if (NUM_OF_SENSORS == 3)
                      uint8 packet_data[8]; 
                  #endif
1512   1          
1513   1          //Header package
1514   1        
1515   1          packet_data[0] = CMD_GET_VELOCITIES;   
1516   1         
1517   1          for (index = NUM_OF_SENSORS; index--;)
1518   1              *((int16 *) &packet_data[(index << 2) + 1]) = (int16)(g_measOld.vel[index]);
1519   1      
1520   1          // Calculate Checksum and send message to UART 
1521   1      
1522   1          #if (NUM_OF_SENSORS == 4)
1523   1              packet_data[9] = LCRChecksum(packet_data, 9);
1524   1              commWrite(packet_data, 10);
1525   1          #endif
1526   1          #if  (NUM_OF_SENSORS == 3)
                      packet_data[7] = LCRChecksum (packet_data, 7);
                      commWrite(packet_data, 8);
                  #endif
1530   1      }
1531          
C51 COMPILER V9.51   COMMAND_PROCESSING                                                    02/07/2017 16:12:02 PAGE 26  

1532          
1533          void cmd_get_joystick() {
1534   1      
1535   1          uint8 packet_data[6];
1536   1          
1537   1          packet_data[0] = CMD_GET_JOYSTICK;
1538   1      
1539   1          *((int16 *) &packet_data[1]) = (int16) g_measOld.joystick[0];
1540   1          *((int16 *) &packet_data[3]) = (int16) g_measOld.joystick[1];
1541   1      
1542   1          packet_data[5] = LCRChecksum(packet_data, 5);
1543   1      
1544   1          commWrite(packet_data, 6);
1545   1      }
1546                                              
1547          void cmd_get_emg() {
1548   1          
1549   1          uint8 packet_data[6];
1550   1          
1551   1          packet_data[0] = CMD_GET_EMG;
1552   1      
1553   1          *((int16 *) &packet_data[1]) = (int16) g_measOld.emg[0];
1554   1          *((int16 *) &packet_data[3]) = (int16) g_measOld.emg[1];
1555   1      
1556   1          packet_data[5] = LCRChecksum (packet_data, 5);
1557   1      
1558   1          commWrite(packet_data, 6);
1559   1      }
1560          
1561          void cmd_activate(){
1562   1          
1563   1          // Store new value reads
1564   1          g_refNew.onoff = g_rx.buffer[1];
1565   1          
1566   1          // Check type of control mode enabled
1567   1          if (g_mem.control_mode == CONTROL_ANGLE || g_mem.control_mode == CURR_AND_POS_CONTROL) {
1568   2              g_refNew.pos[0] = g_meas.pos[0];
1569   2              g_refNew.pos[1] = g_meas.pos[2];
1570   2          }    
1571   1          
1572   1          // Activate/Disactivate motors
1573   1          MOTOR_ON_OFF_Write(g_refNew.onoff);
1574   1      
1575   1      }
1576          
1577          void cmd_set_watchdog(){
1578   1            
1579   1          if (g_rx.buffer[1] <= 0){
1580   2              // Deactivate Watchdog
1581   2              WATCHDOG_ENABLER_Write(1); 
1582   2              g_mem.watchdog_period = 0;   
1583   2          }
1584   1          else{
1585   2              // Activate Watchdog        
1586   2              if (g_rx.buffer[1] > MAX_WATCHDOG_TIMER)
1587   2                  g_rx.buffer[1] = MAX_WATCHDOG_TIMER;
1588   2                  
1589   2              // Period * Time_CLK = WDT
1590   2              // Period = WTD / Time_CLK =     (WTD    )  / ( ( 1 / Freq_CLK ) )
1591   2              // Set request watchdog period - (WTD * 2)  * (250 / 1024        )
1592   2              g_mem.watchdog_period = (uint8) (((uint32) g_rx.buffer[1] * 2 * 250 ) >> 10);   
1593   2              WATCHDOG_COUNTER_WritePeriod(g_mem.watchdog_period); 
C51 COMPILER V9.51   COMMAND_PROCESSING                                                    02/07/2017 16:12:02 PAGE 27  

1594   2              WATCHDOG_ENABLER_Write(0); 
1595   2          }
1596   1      }
1597          
1598          void cmd_get_activate(){
1599   1          
1600   1          uint8 packet_data[3];
1601   1      
1602   1          // Header        
1603   1          packet_data[0] = CMD_GET_ACTIVATE;
1604   1          
1605   1          // Fill payload
1606   1          packet_data[1] = g_ref.onoff;
1607   1          
1608   1          // Calculate checksum
1609   1          packet_data[2] = LCRChecksum(packet_data, 2);
1610   1          
1611   1          // Send package to UART
1612   1          commWrite(packet_data, 3);
1613   1      
1614   1      }
1615          
1616          void cmd_ping(){
1617   1      
1618   1          uint8 packet_data[2];
1619   1      
1620   1          // Header
1621   1          packet_data[0] = CMD_PING;
1622   1          
1623   1          // Load Payload
1624   1          packet_data[1] = CMD_PING;
1625   1      
1626   1          // Send Package to uart
1627   1          commWrite(packet_data, 2);
1628   1      }
1629          
1630          void cmd_store_params(){
1631   1          
1632   1          uint8 CYDATA packet_lenght = 2;
1633   1          uint8 CYDATA packet_data[2];
1634   1          uint8 CYDATA old_id;
1635   1          
1636   1          // Check input mode enabled
1637   1          if( c_mem.input_mode == INPUT_MODE_EXTERNAL ){
1638   2          
1639   2              if (c_mem.m_mult[0] != g_mem.m_mult[0]){
1640   3                  // Old m_mult
1641   3                  g_refNew.pos[0] /= c_mem.m_mult[0];
1642   3                  // New m_mult
1643   3                  g_refNew.pos[0] *= g_mem.m_mult[0];
1644   3              }
1645   2              
1646   2              if (c_mem.m_mult[1] != g_mem.m_mult[1]){
1647   3                  // Old m_mult
1648   3                  g_refNew.pos[1] /= c_mem.m_mult[1];
1649   3                  // New m_mult
1650   3                  g_refNew.pos[1] *= g_mem.m_mult[1];
1651   3              }
1652   2              
1653   2              if (c_mem.m_off[0] != g_mem.m_off[0])
1654   2                  g_refNew.pos[0] += g_mem.m_off[0] - c_mem.m_off[0];
1655   2      
C51 COMPILER V9.51   COMMAND_PROCESSING                                                    02/07/2017 16:12:02 PAGE 28  

1656   2              if (c_mem.m_off[1] != g_mem.m_off[1])
1657   2                  g_refNew.pos[1] += g_mem.m_off[1] - c_mem.m_off[1];
1658   2                  
1659   2              // Check position Limits
1660   2              if (c_mem.pos_lim_flag) {                   // position limiting
1661   3                  if (g_refNew.pos[0] < c_mem.pos_lim_inf[0]) g_refNew.pos[0] = c_mem.pos_lim_inf[0];
1662   3                  if (g_refNew.pos[1] < c_mem.pos_lim_inf[1]) g_refNew.pos[1] = c_mem.pos_lim_inf[1];
1663   3      
1664   3                  if (g_refNew.pos[0] > c_mem.pos_lim_sup[0]) g_refNew.pos[0] = c_mem.pos_lim_sup[0];
1665   3                  if (g_refNew.pos[1] > c_mem.pos_lim_sup[1]) g_refNew.pos[1] = c_mem.pos_lim_sup[1];
1666   3              }
1667   2          }
1668   1          
1669   1          // Store params 
1670   1          if (c_mem.id != g_mem.id) {     //If a new id is going to be set we will lose communication 
1671   2              old_id = c_mem.id;          //after the memstore(0) and the ACK won't be recognised
1672   2              if(memStore(0)) {
1673   3                  packet_data[0] = ACK_OK;
1674   3                  packet_data[1] = ACK_OK;
1675   3                  commWrite_old_id(packet_data, packet_lenght, old_id);
1676   3              }    
1677   2              else{
1678   3                  packet_data[0] = ACK_ERROR;
1679   3                  packet_data[1] = ACK_ERROR;
1680   3                  commWrite_old_id(packet_data, packet_lenght, old_id);
1681   3              }
1682   2          }    
1683   1          else {
1684   2              if ( memStore(0) ) {
1685   3                  sendAcknowledgment(ACK_OK);
1686   3              } else {
1687   3                  sendAcknowledgment(ACK_ERROR);
1688   3              }
1689   2          }
1690   1      }
1691          
1692          void cmd_set_baudrate(){
1693   1          
1694   1          // Set BaudRate
1695   1          c_mem.baud_rate = g_rx.buffer[1];
1696   1          
1697   1          switch(g_rx.buffer[1]){
1698   2              case 13:
1699   2                  CLOCK_UART_SetDividerValue(13);
1700   2                  break;
1701   2              default:
1702   2                  CLOCK_UART_SetDividerValue(3);
1703   2          }
1704   1      }
1705          
1706          /* [] END OF FILE */
C51 COMPILER V9.51   COMMAND_PROCESSING                                                    02/07/2017 16:12:02 PAGE 29  

ASSEMBLY LISTING OF GENERATED OBJECT CODE


             ; FUNCTION commProcess (BEGIN)
                                           ; SOURCE LINE # 37
                                           ; SOURCE LINE # 41
0000 900000      E     MOV     DPTR,#g_rx
0003 E0                MOVX    A,@DPTR
0004 F500        R     MOV     rx_cmd,A
                                           ; SOURCE LINE # 45
0006 7B01              MOV     R3,#01H
0008 7A00        E     MOV     R2,#HIGH g_rx
000A 7900        E     MOV     R1,#LOW g_rx
000C 900000      E     MOV     DPTR,#g_rx+080H
000F E0                MOVX    A,@DPTR
0010 A3                INC     DPTR
0011 E0                MOVX    A,@DPTR
0012 14                DEC     A
0013 FD                MOV     R5,A
0014 120000      E     LCALL   _LCRChecksum
0017 900000      E     MOV     DPTR,#g_rx+080H
001A E0                MOVX    A,@DPTR
001B FC                MOV     R4,A
001C A3                INC     DPTR
001D E0                MOVX    A,@DPTR
001E 2400        E     ADD     A,#LOW g_rx+0FFFFH
0020 F582              MOV     DPL,A
0022 7400        E     MOV     A,#HIGH g_rx+0FFFFH
0024 3C                ADDC    A,R4
0025 F583              MOV     DPH,A
0027 E0                MOVX    A,@DPTR
0028 B50703            CJNE    A,AR7,?C0002
002B D3                SETB    C
002C 8001              SJMP    ?C0003
002E         ?C0002:
002E C3                CLR     C
002F         ?C0003:
002F 4006              JC      ?C0001
                                           ; SOURCE LINE # 47
0031 E4                CLR     A
0032 900000      E     MOV     DPTR,#g_rx+084H
0035 F0                MOVX    @DPTR,A
0036 22                RET     
                                           ; SOURCE LINE # 49
0037         ?C0001:
                                           ; SOURCE LINE # 51
0037 E500        R     MOV     A,rx_cmd
0039 120000      E     LCALL   ?C?CCASE
003C 0000        R     DW      ?C0022
003E 00                DB      00H
003F 0000        R     DW      ?C0020
0041 01                DB      01H
0042 0000        R     DW      ?C0023
0044 03                DB      03H
0045 0000        R     DW      ?C0024
0047 04                DB      04H
0048 0000        R     DW      ?C0027
004A 05                DB      05H
004B 0000        R     DW      ?C0019
004D 06                DB      06H
004E 0000        R     DW      ?C0033
0050 09                DB      09H
C51 COMPILER V9.51   COMMAND_PROCESSING                                                    02/07/2017 16:12:02 PAGE 30  

0051 0000        R     DW      ?C0030
0053 0A                DB      0AH
0054 0000        R     DW      ?C0021
0056 0C                DB      0CH
0057 0000        R     DW      ?C0034
0059 0D                DB      0DH
005A 0000        R     DW      ?C0015
005C 80                DB      080H
005D 0000        R     DW      ?C0017
005F 81                DB      081H
0060 0000        R     DW      ?C0010
0062 82                DB      082H
0063 0000        R     DW      ?C0007
0065 83                DB      083H
0066 0000        R     DW      ?C0006
0068 84                DB      084H
0069 0000        R     DW      ?C0008
006B 85                DB      085H
006C 0000        R     DW      ?C0009
006E 86                DB      086H
006F 0000        R     DW      ?C0011
0071 87                DB      087H
0072 0000        R     DW      ?C0014
0074 88                DB      088H
0075 0000        R     DW      ?C0012
0077 89                DB      089H
0078 0000        R     DW      ?C0016
007A 8F                DB      08FH
007B 0000        R     DW      ?C0018
007D 90                DB      090H
007E 0000        R     DW      ?C0013
0080 92                DB      092H
0081 0000              DW      00H
0083 0000        R     DW      ?C0004
                                           ; SOURCE LINE # 54
0085         ?C0006:
                                           ; SOURCE LINE # 55
0085 120000      R     LCALL   cmd_get_measurements
                                           ; SOURCE LINE # 56
0088 22                RET     
                                           ; SOURCE LINE # 60
0089         ?C0007:
                                           ; SOURCE LINE # 61
0089 120000      R     LCALL   cmd_get_inputs
                                           ; SOURCE LINE # 62
008C 22                RET     
                                           ; SOURCE LINE # 65
008D         ?C0008:
                                           ; SOURCE LINE # 66
008D 120000      R     LCALL   cmd_get_currents
                                           ; SOURCE LINE # 67
0090 22                RET     
                                           ; SOURCE LINE # 71
0091         ?C0009:
                                           ; SOURCE LINE # 72
0091 120000      R     LCALL   cmd_get_curr_and_meas
                                           ; SOURCE LINE # 73
0094 22                RET     
                                           ; SOURCE LINE # 77
0095         ?C0010:
                                           ; SOURCE LINE # 78
0095 120000      R     LCALL   cmd_set_inputs
C51 COMPILER V9.51   COMMAND_PROCESSING                                                    02/07/2017 16:12:02 PAGE 31  

                                           ; SOURCE LINE # 79
0098 22                RET     
                                           ; SOURCE LINE # 83
0099         ?C0011:
                                           ; SOURCE LINE # 84
0099 120000      R     LCALL   cmd_set_pos_stiff
                                           ; SOURCE LINE # 85
009C 22                RET     
                                           ; SOURCE LINE # 89
009D         ?C0012:
                                           ; SOURCE LINE # 90
009D 120000      R     LCALL   cmd_get_velocities
                                           ; SOURCE LINE # 91
00A0 22                RET     
                                           ; SOURCE LINE # 95
00A1         ?C0013:
                                           ; SOURCE LINE # 96
00A1 120000      R     LCALL   cmd_get_joystick
                                           ; SOURCE LINE # 97
00A4 22                RET     
                                           ; SOURCE LINE # 101
00A5         ?C0014:
                                           ; SOURCE LINE # 102
00A5 120000      R     LCALL   cmd_get_emg
                                           ; SOURCE LINE # 103
00A8 22                RET     
                                           ; SOURCE LINE # 107
00A9         ?C0015:
                                           ; SOURCE LINE # 108
00A9 120000      R     LCALL   cmd_activate
                                           ; SOURCE LINE # 109
00AC 22                RET     
                                           ; SOURCE LINE # 113
00AD         ?C0016:
                                           ; SOURCE LINE # 114
00AD 120000      R     LCALL   cmd_set_watchdog
                                           ; SOURCE LINE # 115
00B0 22                RET     
                                           ; SOURCE LINE # 119
00B1         ?C0017:
                                           ; SOURCE LINE # 120
00B1 120000      R     LCALL   cmd_get_activate
                                           ; SOURCE LINE # 121
00B4 22                RET     
                                           ; SOURCE LINE # 125
00B5         ?C0018:
                                           ; SOURCE LINE # 126
00B5 120000      R     LCALL   cmd_set_baudrate
                                           ; SOURCE LINE # 127
00B8 22                RET     
                                           ; SOURCE LINE # 131
00B9         ?C0019:
                                           ; SOURCE LINE # 132
00B9 900000      E     MOV     DPTR,#g_rx+01H
00BC E0                MOVX    A,@DPTR
00BD FE                MOV     R6,A
00BE A3                INC     DPTR
00BF E0                MOVX    A,@DPTR
00C0 FF                MOV     R7,A
00C1 120000      R     LCALL   _infoGet
                                           ; SOURCE LINE # 133
00C4 22                RET     
C51 COMPILER V9.51   COMMAND_PROCESSING                                                    02/07/2017 16:12:02 PAGE 32  

                                           ; SOURCE LINE # 137
00C5         ?C0020:
                                           ; SOURCE LINE # 138
00C5 120000      R     LCALL   setZeros
                                           ; SOURCE LINE # 139
00C8 22                RET     
                                           ; SOURCE LINE # 143
00C9         ?C0021:
                                           ; SOURCE LINE # 144
00C9 900000      E     MOV     DPTR,#g_rx+01H
00CC E0                MOVX    A,@DPTR
00CD FE                MOV     R6,A
00CE A3                INC     DPTR
00CF E0                MOVX    A,@DPTR
00D0 FF                MOV     R7,A
00D1 120000      R     LCALL   _get_param_list
                                           ; SOURCE LINE # 145
00D4 22                RET     
                                           ; SOURCE LINE # 149
00D5         ?C0022:
                                           ; SOURCE LINE # 150
00D5 120000      R     LCALL   cmd_ping
                                           ; SOURCE LINE # 151
00D8 22                RET     
                                           ; SOURCE LINE # 155
00D9         ?C0023:
                                           ; SOURCE LINE # 156
00D9 120000      R     LCALL   cmd_store_params
                                           ; SOURCE LINE # 157
00DC 22                RET     
                                           ; SOURCE LINE # 161
00DD         ?C0024:
                                           ; SOURCE LINE # 162
00DD 7F08              MOV     R7,#08H
00DF 7E00              MOV     R6,#00H
00E1 120000      R     LCALL   _memStore
00E4 EF                MOV     A,R7
00E5 6006              JZ      ?C0025
                                           ; SOURCE LINE # 163
00E7 7F01              MOV     R7,#01H
00E9 120000      R     LCALL   _sendAcknowledgment
                                           ; SOURCE LINE # 164
00EC 22                RET     
00ED         ?C0025:
                                           ; SOURCE LINE # 165
00ED E4                CLR     A
00EE FF                MOV     R7,A
00EF 120000      R     LCALL   _sendAcknowledgment
                                           ; SOURCE LINE # 166
                                           ; SOURCE LINE # 167
00F2 22                RET     
                                           ; SOURCE LINE # 171
00F3         ?C0027:
                                           ; SOURCE LINE # 172
00F3 120000      R     LCALL   memRestore
00F6 EF                MOV     A,R7
00F7 6006              JZ      ?C0028
                                           ; SOURCE LINE # 173
00F9 7F01              MOV     R7,#01H
00FB 120000      R     LCALL   _sendAcknowledgment
                                           ; SOURCE LINE # 174
00FE 22                RET     
C51 COMPILER V9.51   COMMAND_PROCESSING                                                    02/07/2017 16:12:02 PAGE 33  

00FF         ?C0028:
                                           ; SOURCE LINE # 175
00FF E4                CLR     A
0100 FF                MOV     R7,A
0101 120000      R     LCALL   _sendAcknowledgment
                                           ; SOURCE LINE # 176
                                           ; SOURCE LINE # 177
0104 22                RET     
                                           ; SOURCE LINE # 181
0105         ?C0030:
                                           ; SOURCE LINE # 182
0105 120000      R     LCALL   memInit
0108 EF                MOV     A,R7
0109 6006              JZ      ?C0031
                                           ; SOURCE LINE # 183
010B 7F01              MOV     R7,#01H
010D 120000      R     LCALL   _sendAcknowledgment
                                           ; SOURCE LINE # 184
0110 22                RET     
0111         ?C0031:
                                           ; SOURCE LINE # 185
0111 E4                CLR     A
0112 FF                MOV     R7,A
0113 120000      R     LCALL   _sendAcknowledgment
                                           ; SOURCE LINE # 186
                                           ; SOURCE LINE # 187
0116 22                RET     
                                           ; SOURCE LINE # 190
0117         ?C0033:
                                           ; SOURCE LINE # 191
0117 7F01              MOV     R7,#01H
0119 120000      R     LCALL   _sendAcknowledgment
                                           ; SOURCE LINE # 192
011C E4                CLR     A
011D 7FE8              MOV     R7,#0E8H
011F 7E03              MOV     R6,#03H
0121 FD                MOV     R5,A
0122 FC                MOV     R4,A
0123 120000      E     LCALL   _?CyDelay
                                           ; SOURCE LINE # 193
0126 E4                CLR     A
0127 FF                MOV     R7,A
0128 120000      E     LCALL   _FTDI_ENABLE_REG_Write
                                           ; SOURCE LINE # 194
012B E4                CLR     A
012C 7FE8              MOV     R7,#0E8H
012E 7E03              MOV     R6,#03H
0130 FD                MOV     R5,A
0131 FC                MOV     R4,A
0132 120000      E     LCALL   _?CyDelay
                                           ; SOURCE LINE # 195
0135 120000      E     LCALL   Bootloadable_Load
                                           ; SOURCE LINE # 196
0138 22                RET     
                                           ; SOURCE LINE # 199
0139         ?C0034:
                                           ; SOURCE LINE # 200
0139 900000      E     MOV     DPTR,#g_rx+01H
013C E0                MOVX    A,@DPTR
013D FF                MOV     R7,A
013E A3                INC     DPTR
013F E0                MOVX    A,@DPTR
C51 COMPILER V9.51   COMMAND_PROCESSING                                                    02/07/2017 16:12:02 PAGE 34  

0140 900000      E     MOV     DPTR,#calib+02H
0143 CF                XCH     A,R7
0144 F0                MOVX    @DPTR,A
0145 A3                INC     DPTR
0146 EF                MOV     A,R7
0147 F0                MOVX    @DPTR,A
                                           ; SOURCE LINE # 201
0148 900000      E     MOV     DPTR,#g_rx+03H
014B E0                MOVX    A,@DPTR
014C FF                MOV     R7,A
014D A3                INC     DPTR
014E E0                MOVX    A,@DPTR
014F 900000      E     MOV     DPTR,#calib+04H
0152 CF                XCH     A,R7
0153 F0                MOVX    @DPTR,A
0154 A3                INC     DPTR
0155 EF                MOV     A,R7
0156 F0                MOVX    @DPTR,A
                                           ; SOURCE LINE # 204
0157 900000      E     MOV     DPTR,#calib+02H
015A E0                MOVX    A,@DPTR
015B FE                MOV     R6,A
015C A3                INC     DPTR
015D E0                MOVX    A,@DPTR
015E FF                MOV     R7,A
015F C3                CLR     C
0160 EE                MOV     A,R6
0161 6480              XRL     A,#080H
0163 9480              SUBB    A,#080H
0165 5009              JNC     ?C0035
                                           ; SOURCE LINE # 205
0167 E4                CLR     A
0168 900000      E     MOV     DPTR,#calib+02H
016B F0                MOVX    @DPTR,A
016C A3                INC     DPTR
016D F0                MOVX    @DPTR,A
                                           ; SOURCE LINE # 206
016E 8014              SJMP    ?C0036
0170         ?C0035:
0170 D3                SETB    C
0171 EF                MOV     A,R7
0172 94C8              SUBB    A,#0C8H
0174 EE                MOV     A,R6
0175 6480              XRL     A,#080H
0177 9480              SUBB    A,#080H
0179 4009              JC      ?C0036
                                           ; SOURCE LINE # 207
017B 900000      E     MOV     DPTR,#calib+02H
017E E4                CLR     A
017F F0                MOVX    @DPTR,A
0180 A3                INC     DPTR
0181 74C8              MOV     A,#0C8H
0183 F0                MOVX    @DPTR,A
                                           ; SOURCE LINE # 208
0184         ?C0036:
                                           ; SOURCE LINE # 209
0184 900000      E     MOV     DPTR,#calib+04H
0187 E0                MOVX    A,@DPTR
0188 FE                MOV     R6,A
0189 A3                INC     DPTR
018A E0                MOVX    A,@DPTR
018B FF                MOV     R7,A
C51 COMPILER V9.51   COMMAND_PROCESSING                                                    02/07/2017 16:12:02 PAGE 35  

018C C3                CLR     C
018D EE                MOV     A,R6
018E 6480              XRL     A,#080H
0190 9480              SUBB    A,#080H
0192 5009              JNC     ?C0038
                                           ; SOURCE LINE # 210
0194 E4                CLR     A
0195 900000      E     MOV     DPTR,#calib+04H
0198 F0                MOVX    @DPTR,A
0199 A3                INC     DPTR
019A F0                MOVX    @DPTR,A
                                           ; SOURCE LINE # 211
019B 8015              SJMP    ?C0039
019D         ?C0038:
019D D3                SETB    C
019E EF                MOV     A,R7
019F 94FF              SUBB    A,#0FFH
01A1 EE                MOV     A,R6
01A2 6480              XRL     A,#080H
01A4 94FF              SUBB    A,#0FFH
01A6 400A              JC      ?C0039
                                           ; SOURCE LINE # 212
01A8 900000      E     MOV     DPTR,#calib+04H
01AB 747F              MOV     A,#07FH
01AD F0                MOVX    @DPTR,A
01AE A3                INC     DPTR
01AF 74FF              MOV     A,#0FFH
01B1 F0                MOVX    @DPTR,A
                                           ; SOURCE LINE # 213
01B2         ?C0039:
                                           ; SOURCE LINE # 215
01B2 E4                CLR     A
01B3 FF                MOV     R7,A
01B4 FE                MOV     R6,A
01B5 FD                MOV     R5,A
01B6 FC                MOV     R4,A
01B7 900000      E     MOV     DPTR,#g_refNew
01BA 120000      E     LCALL   ?C?LSTXDATA
                                           ; SOURCE LINE # 216
01BD 900000      E     MOV     DPTR,#calib
01C0 7401              MOV     A,#01H
01C2 F0                MOVX    @DPTR,A
                                           ; SOURCE LINE # 217
                                           ; SOURCE LINE # 220
                                           ; SOURCE LINE # 221
                                           ; SOURCE LINE # 222
                                           ; SOURCE LINE # 223
01C3         ?C0004:
01C3 22                RET     
             ; FUNCTION commProcess (END)

             ; FUNCTION _infoGet (BEGIN)
                                           ; SOURCE LINE # 229
;---- Variable 'info_type' assigned to Register 'R6/R7' ----
                                           ; SOURCE LINE # 234
0000 EF                MOV     A,R7
0001 7015              JNZ     ?C0045
0003 EE                MOV     A,R6
0004 7012              JNZ     ?C0045
                                           ; SOURCE LINE # 235
0006         ?C0043:
                                           ; SOURCE LINE # 236
C51 COMPILER V9.51   COMMAND_PROCESSING                                                    02/07/2017 16:12:02 PAGE 36  

0006 7B01              MOV     R3,#01H
0008 7A00        R     MOV     R2,#HIGH packet_string
000A 7900        R     MOV     R1,#LOW packet_string
000C 120000      R     LCALL   _infoPrepare
                                           ; SOURCE LINE # 237
000F 7B01              MOV     R3,#01H
0011 7A00        R     MOV     R2,#HIGH packet_string
0013 7900        R     MOV     R1,#LOW packet_string
0015 120000      E     LCALL   _UART_RS485_PutString
                                           ; SOURCE LINE # 238
                                           ; SOURCE LINE # 239
                                           ; SOURCE LINE # 240
                                           ; SOURCE LINE # 241
                                           ; SOURCE LINE # 242
0018         ?C0045:
0018 22                RET     
             ; FUNCTION _infoGet (END)

             ; FUNCTION setZeros (BEGIN)
                                           ; SOURCE LINE # 248
                                           ; SOURCE LINE # 249
                                           ; SOURCE LINE # 252
0000 E4                CLR     A
0001 F500        R     MOV     i,A
0003         ?C0046:
0003 E500        R     MOV     A,i
0005 C3                CLR     C
0006 9404              SUBB    A,#04H
0008 5075              JNC     ?C0047
                                           ; SOURCE LINE # 253
000A E500        R     MOV     A,i
000C 25E0              ADD     A,ACC
000E 2400        E     ADD     A,#LOW g_rx+01H
0010 F582              MOV     DPL,A
0012 E4                CLR     A
0013 3400        E     ADDC    A,#HIGH g_rx+01H
0015 F583              MOV     DPH,A
0017 E0                MOVX    A,@DPTR
0018 FE                MOV     R6,A
0019 A3                INC     DPTR
001A E0                MOVX    A,@DPTR
001B FF                MOV     R7,A
001C EE                MOV     A,R6
001D 33                RLC     A
001E 95E0              SUBB    A,ACC
0020 FD                MOV     R5,A
0021 FC                MOV     R4,A
0022 E500        R     MOV     A,i
0024 25E0              ADD     A,ACC
0026 25E0              ADD     A,ACC
0028 2400        E     ADD     A,#LOW g_mem+03BH
002A F582              MOV     DPL,A
002C E4                CLR     A
002D 3400        E     ADDC    A,#HIGH g_mem+03BH
002F F583              MOV     DPH,A
0031 120000      E     LCALL   ?C?LSTXDATA
                                           ; SOURCE LINE # 254
0034 E500        R     MOV     A,i
0036 25E0              ADD     A,ACC
0038 25E0              ADD     A,ACC
003A 2400        E     ADD     A,#LOW g_mem+03BH
003C F582              MOV     DPL,A
C51 COMPILER V9.51   COMMAND_PROCESSING                                                    02/07/2017 16:12:02 PAGE 37  

003E E4                CLR     A
003F 3400        E     ADDC    A,#HIGH g_mem+03BH
0041 F583              MOV     DPH,A
0043 C083              PUSH    DPH
0045 C082              PUSH    DPL
0047 E0                MOVX    A,@DPTR
0048 FC                MOV     R4,A
0049 A3                INC     DPTR
004A E0                MOVX    A,@DPTR
004B FD                MOV     R5,A
004C A3                INC     DPTR
004D E0                MOVX    A,@DPTR
004E FE                MOV     R6,A
004F A3                INC     DPTR
0050 E0                MOVX    A,@DPTR
0051 FF                MOV     R7,A
0052 7400        E     MOV     A,#LOW g_mem+037H
0054 2500        R     ADD     A,i
0056 F582              MOV     DPL,A
0058 E4                CLR     A
0059 3400        E     ADDC    A,#HIGH g_mem+037H
005B F583              MOV     DPH,A
005D E0                MOVX    A,@DPTR
005E F9                MOV     R1,A
005F F8                MOV     R0,A
0060 120000      E     LCALL   ?C?LSHL
0063 D082              POP     DPL
0065 D083              POP     DPH
0067 120000      E     LCALL   ?C?LSTXDATA
                                           ; SOURCE LINE # 256
006A E500        R     MOV     A,i
006C 25E0              ADD     A,ACC
006E 2400        E     ADD     A,#LOW g_meas+020H
0070 F582              MOV     DPL,A
0072 E4                CLR     A
0073 3400        E     ADDC    A,#HIGH g_meas+020H
0075 F583              MOV     DPH,A
0077 E4                CLR     A
0078 F0                MOVX    @DPTR,A
0079 A3                INC     DPTR
007A F0                MOVX    @DPTR,A
                                           ; SOURCE LINE # 257
007B 0500        R     INC     i
007D 8084              SJMP    ?C0046
007F         ?C0047:
                                           ; SOURCE LINE # 258
007F D200        E     SETB    reset_last_value_flag
                                           ; SOURCE LINE # 260
0081 7F01              MOV     R7,#01H
0083 120000      R     LCALL   _sendAcknowledgment
                                           ; SOURCE LINE # 261
0086 22                RET     
             ; FUNCTION setZeros (END)

             ; FUNCTION _get_param_list (BEGIN)
                                           ; SOURCE LINE # 267
0000 900000      R     MOV     DPTR,#index
0003 EE                MOV     A,R6
0004 F0                MOVX    @DPTR,A
0005 A3                INC     DPTR
0006 EF                MOV     A,R7
0007 F0                MOVX    @DPTR,A
C51 COMPILER V9.51   COMMAND_PROCESSING                                                    02/07/2017 16:12:02 PAGE 38  

                                           ; SOURCE LINE # 268
                                           ; SOURCE LINE # 270
0008 7800        R     MOV     R0,#LOW packet_data
000A 7C00        R     MOV     R4,#HIGH packet_data
000C 7D01              MOV     R5,#01H
000E 7BFF              MOV     R3,#0FFH
0010 7A00        R     MOV     R2,#HIGH _?ix1000
0012 7900        R     MOV     R1,#LOW _?ix1000
0014 7E06              MOV     R6,#06H
0016 7F73              MOV     R7,#073H
0018 120000      E     LCALL   ?C?COPYAMD
                                           ; SOURCE LINE # 271
001B 900000      R     MOV     DPTR,#packet_lenght
001E 7406              MOV     A,#06H
0020 F0                MOVX    @DPTR,A
0021 A3                INC     DPTR
0022 7473              MOV     A,#073H
0024 F0                MOVX    @DPTR,A
                                           ; SOURCE LINE # 280
0025 7800        R     MOV     R0,#LOW id_str
0027 7C00        R     MOV     R4,#HIGH id_str
0029 7D01              MOV     R5,#01H
002B 7BFF              MOV     R3,#0FFH
002D 7A00        R     MOV     R2,#HIGH _?ix1001
002F 7900        R     MOV     R1,#LOW _?ix1001
0031 7E00              MOV     R6,#00H
0033 7F0F              MOV     R7,#0FH
0035 120000      E     LCALL   ?C?COPYAMD
                                           ; SOURCE LINE # 281
0038 7800        R     MOV     R0,#LOW pos_pid_str
003A 7C00        R     MOV     R4,#HIGH pos_pid_str
003C 7D01              MOV     R5,#01H
003E 7BFF              MOV     R3,#0FFH
0040 7A00        R     MOV     R2,#HIGH _?ix1002
0042 7900        R     MOV     R1,#LOW _?ix1002
0044 7E00              MOV     R6,#00H
0046 7F1C              MOV     R7,#01CH
0048 120000      E     LCALL   ?C?COPYAMD
                                           ; SOURCE LINE # 282
004B 7800        R     MOV     R0,#LOW curr_pid_str
004D 7C00        R     MOV     R4,#HIGH curr_pid_str
004F 7D01              MOV     R5,#01H
0051 7BFF              MOV     R3,#0FFH
0053 7A00        R     MOV     R2,#HIGH _?ix1003
0055 7900        R     MOV     R1,#LOW _?ix1003
0057 7E00              MOV     R6,#00H
0059 7F1B              MOV     R7,#01BH
005B 120000      E     LCALL   ?C?COPYAMD
                                           ; SOURCE LINE # 283
005E 7800        R     MOV     R0,#LOW startup_str
0060 7C00        R     MOV     R4,#HIGH startup_str
0062 7D01              MOV     R5,#01H
0064 7BFF              MOV     R3,#0FFH
0066 7A00        R     MOV     R2,#HIGH _?ix1004
0068 7900        R     MOV     R1,#LOW _?ix1004
006A 7E00              MOV     R6,#00H
006C 7F1C              MOV     R7,#01CH
006E 120000      E     LCALL   ?C?COPYAMD
                                           ; SOURCE LINE # 284
0071 7800        R     MOV     R0,#LOW input_str
0073 7C00        R     MOV     R4,#HIGH input_str
0075 7D01              MOV     R5,#01H
C51 COMPILER V9.51   COMMAND_PROCESSING                                                    02/07/2017 16:12:02 PAGE 39  

0077 7BFF              MOV     R3,#0FFH
0079 7A00        R     MOV     R2,#HIGH _?ix1005
007B 7900        R     MOV     R1,#LOW _?ix1005
007D 7E00              MOV     R6,#00H
007F 7F22              MOV     R7,#022H
0081 120000      E     LCALL   ?C?COPYAMD
                                           ; SOURCE LINE # 285
0084 7800        R     MOV     R0,#LOW contr_str
0086 7C00        R     MOV     R4,#HIGH contr_str
0088 7D01              MOV     R5,#01H
008A 7BFF              MOV     R3,#0FFH
008C 7A00        R     MOV     R2,#HIGH _?ix1006
008E 7900        R     MOV     R1,#LOW _?ix1006
0090 7E00              MOV     R6,#00H
0092 7F27              MOV     R7,#027H
0094 120000      E     LCALL   ?C?COPYAMD
                                           ; SOURCE LINE # 286
0097 7800        R     MOV     R0,#LOW res_str
0099 7C00        R     MOV     R4,#HIGH res_str
009B 7D01              MOV     R5,#01H
009D 7BFF              MOV     R3,#0FFH
009F 7A00        R     MOV     R2,#HIGH _?ix1007
00A1 7900        R     MOV     R1,#LOW _?ix1007
00A3 7E00              MOV     R6,#00H
00A5 7F11              MOV     R7,#011H
00A7 120000      E     LCALL   ?C?COPYAMD
                                           ; SOURCE LINE # 287
00AA 7800        R     MOV     R0,#LOW m_off_str
00AC 7C00        R     MOV     R4,#HIGH m_off_str
00AE 7D01              MOV     R5,#01H
00B0 7BFF              MOV     R3,#0FFH
00B2 7A00        R     MOV     R2,#HIGH _?ix1008
00B4 7900        R     MOV     R1,#LOW _?ix1008
00B6 7E00              MOV     R6,#00H
00B8 7F19              MOV     R7,#019H
00BA 120000      E     LCALL   ?C?COPYAMD
                                           ; SOURCE LINE # 288
00BD 7800        R     MOV     R0,#LOW mult_str
00BF 7C00        R     MOV     R4,#HIGH mult_str
00C1 7D01              MOV     R5,#01H
00C3 7BFF              MOV     R3,#0FFH
00C5 7A00        R     MOV     R2,#HIGH _?ix1009
00C7 7900        R     MOV     R1,#LOW _?ix1009
00C9 7E00              MOV     R6,#00H
00CB 7F11              MOV     R7,#011H
00CD 120000      E     LCALL   ?C?COPYAMD
                                           ; SOURCE LINE # 289
00D0 7800        R     MOV     R0,#LOW pos_lim_flag_str
00D2 7C00        R     MOV     R4,#HIGH pos_lim_flag_str
00D4 7D01              MOV     R5,#01H
00D6 7BFF              MOV     R3,#0FFH
00D8 7A00        R     MOV     R2,#HIGH _?ix1010
00DA 7900        R     MOV     R1,#LOW _?ix1010
00DC 7E00              MOV     R6,#00H
00DE 7F1C              MOV     R7,#01CH
00E0 120000      E     LCALL   ?C?COPYAMD
                                           ; SOURCE LINE # 290
00E3 7800        R     MOV     R0,#LOW pos_lim_str
00E5 7C00        R     MOV     R4,#HIGH pos_lim_str
00E7 7D01              MOV     R5,#01H
00E9 7BFF              MOV     R3,#0FFH
00EB 7A00        R     MOV     R2,#HIGH _?ix1011
C51 COMPILER V9.51   COMMAND_PROCESSING                                                    02/07/2017 16:12:02 PAGE 40  

00ED 7900        R     MOV     R1,#LOW _?ix1011
00EF 7E00              MOV     R6,#00H
00F1 7F1D              MOV     R7,#01DH
00F3 120000      E     LCALL   ?C?COPYAMD
                                           ; SOURCE LINE # 291
00F6 7800        R     MOV     R0,#LOW max_step_str
00F8 7C00        R     MOV     R4,#HIGH max_step_str
00FA 7D01              MOV     R5,#01H
00FC 7BFF              MOV     R3,#0FFH
00FE 7A00        R     MOV     R2,#HIGH _?ix1012
0100 7900        R     MOV     R1,#LOW _?ix1012
0102 7E00              MOV     R6,#00H
0104 7F1B              MOV     R7,#01BH
0106 120000      E     LCALL   ?C?COPYAMD
                                           ; SOURCE LINE # 292
0109 7800        R     MOV     R0,#LOW curr_limit_str
010B 7C00        R     MOV     R4,#HIGH curr_limit_str
010D 7D01              MOV     R5,#01H
010F 7BFF              MOV     R3,#0FFH
0111 7A00        R     MOV     R2,#HIGH _?ix1013
0113 7900        R     MOV     R1,#LOW _?ix1013
0115 7E00              MOV     R6,#00H
0117 7F14              MOV     R7,#014H
0119 120000      E     LCALL   ?C?COPYAMD
                                           ; SOURCE LINE # 293
011C 7800        R     MOV     R0,#LOW emg_flag_str
011E 7C00        R     MOV     R4,#HIGH emg_flag_str
0120 7D01              MOV     R5,#01H
0122 7BFF              MOV     R3,#0FFH
0124 7A00        R     MOV     R2,#HIGH _?ix1014
0126 7900        R     MOV     R1,#LOW _?ix1014
0128 7E00              MOV     R6,#00H
012A 7F25              MOV     R7,#025H
012C 120000      E     LCALL   ?C?COPYAMD
                                           ; SOURCE LINE # 294
012F 7800        R     MOV     R0,#LOW emg_thr_str
0131 7C00        R     MOV     R4,#HIGH emg_thr_str
0133 7D01              MOV     R5,#01H
0135 7BFF              MOV     R3,#0FFH
0137 7A00        R     MOV     R2,#HIGH _?ix1015
0139 7900        R     MOV     R1,#LOW _?ix1015
013B 7E00              MOV     R6,#00H
013D 7F15              MOV     R7,#015H
013F 120000      E     LCALL   ?C?COPYAMD
                                           ; SOURCE LINE # 295
0142 7800        R     MOV     R0,#LOW emg_max_val_str
0144 7C00        R     MOV     R4,#HIGH emg_max_val_str
0146 7D01              MOV     R5,#01H
0148 7BFF              MOV     R3,#0FFH
014A 7A00        R     MOV     R2,#HIGH _?ix1016
014C 7900        R     MOV     R1,#LOW _?ix1016
014E 7E00              MOV     R6,#00H
0150 7F15              MOV     R7,#015H
0152 120000      E     LCALL   ?C?COPYAMD
                                           ; SOURCE LINE # 296
0155 7800        R     MOV     R0,#LOW emg_max_speed_str
0157 7C00        R     MOV     R4,#HIGH emg_max_speed_str
0159 7D01              MOV     R5,#01H
015B 7BFF              MOV     R3,#0FFH
015D 7A00        R     MOV     R2,#HIGH _?ix1017
015F 7900        R     MOV     R1,#LOW _?ix1017
0161 7E00              MOV     R6,#00H
C51 COMPILER V9.51   COMMAND_PROCESSING                                                    02/07/2017 16:12:02 PAGE 41  

0163 7F14              MOV     R7,#014H
0165 120000      E     LCALL   ?C?COPYAMD
                                           ; SOURCE LINE # 297
0168 7800        R     MOV     R0,#LOW abs_enc_str
016A 7C00        R     MOV     R4,#HIGH abs_enc_str
016C 7D01              MOV     R5,#01H
016E 7BFF              MOV     R3,#0FFH
0170 7A00        R     MOV     R2,#HIGH _?ix1018
0172 7900        R     MOV     R1,#LOW _?ix1018
0174 7E00              MOV     R6,#00H
0176 7F24              MOV     R7,#024H
0178 120000      E     LCALL   ?C?COPYAMD
                                           ; SOURCE LINE # 298
017B 7800        R     MOV     R0,#LOW handle_ratio_str
017D 7C00        R     MOV     R4,#HIGH handle_ratio_str
017F 7D01              MOV     R5,#01H
0181 7BFF              MOV     R3,#0FFH
0183 7A00        R     MOV     R2,#HIGH _?ix1019
0185 7900        R     MOV     R1,#LOW _?ix1019
0187 7E00              MOV     R6,#00H
0189 7F19              MOV     R7,#019H
018B 120000      E     LCALL   ?C?COPYAMD
                                           ; SOURCE LINE # 299
018E 7800        R     MOV     R0,#LOW motor_type_str
0190 7C00        R     MOV     R4,#HIGH motor_type_str
0192 7D01              MOV     R5,#01H
0194 7BFF              MOV     R3,#0FFH
0196 7A00        R     MOV     R2,#HIGH _?ix1020
0198 7900        R     MOV     R1,#LOW _?ix1020
019A 7E00              MOV     R6,#00H
019C 7F18              MOV     R7,#018H
019E 120000      E     LCALL   ?C?COPYAMD
                                           ; SOURCE LINE # 300
01A1 7800        R     MOV     R0,#LOW curr_lookup_str
01A3 7C00        R     MOV     R4,#HIGH curr_lookup_str
01A5 7D01              MOV     R5,#01H
01A7 7BFF              MOV     R3,#0FFH
01A9 7A00        R     MOV     R2,#HIGH _?ix1021
01AB 7900        R     MOV     R1,#LOW _?ix1021
01AD 7E00              MOV     R6,#00H
01AF 7F15              MOV     R7,#015H
01B1 120000      E     LCALL   ?C?COPYAMD
                                           ; SOURCE LINE # 301
01B4 7800        R     MOV     R0,#LOW closure_speed_str
01B6 7C00        R     MOV     R4,#HIGH closure_speed_str
01B8 7D01              MOV     R5,#01H
01BA 7BFF              MOV     R3,#0FFH
01BC 7A00        R     MOV     R2,#HIGH _?ix1022
01BE 7900        R     MOV     R1,#LOW _?ix1022
01C0 7E00              MOV     R6,#00H
01C2 7F14              MOV     R7,#014H
01C4 120000      E     LCALL   ?C?COPYAMD
                                           ; SOURCE LINE # 302
01C7 7800        R     MOV     R0,#LOW joystick_thr_str
01C9 7C00        R     MOV     R4,#HIGH joystick_thr_str
01CB 7D01              MOV     R5,#01H
01CD 7BFF              MOV     R3,#0FFH
01CF 7A00        R     MOV     R2,#HIGH _?ix1023
01D1 7900        R     MOV     R1,#LOW _?ix1023
01D3 7E00              MOV     R6,#00H
01D5 7F1A              MOV     R7,#01AH
01D7 120000      E     LCALL   ?C?COPYAMD
C51 COMPILER V9.51   COMMAND_PROCESSING                                                    02/07/2017 16:12:02 PAGE 42  

                                           ; SOURCE LINE # 303
01DA 7800        R     MOV     R0,#LOW joystick_gains_str
01DC 7C00        R     MOV     R4,#HIGH joystick_gains_str
01DE 7D01              MOV     R5,#01H
01E0 7BFF              MOV     R3,#0FFH
01E2 7A00        R     MOV     R2,#HIGH _?ix1024
01E4 7900        R     MOV     R1,#LOW _?ix1024
01E6 7E00              MOV     R6,#00H
01E8 7F15              MOV     R7,#015H
01EA 120000      E     LCALL   ?C?COPYAMD
                                           ; SOURCE LINE # 306
01ED 7800        R     MOV     R0,#LOW input_mode_menu
01EF 7C00        R     MOV     R4,#HIGH input_mode_menu
01F1 7D01              MOV     R5,#01H
01F3 7BFF              MOV     R3,#0FFH
01F5 7A00        R     MOV     R2,#HIGH _?ix1025
01F7 7900        R     MOV     R1,#LOW _?ix1025
01F9 7E00              MOV     R6,#00H
01FB 7F64              MOV     R7,#064H
01FD 120000      E     LCALL   ?C?COPYAMD
                                           ; SOURCE LINE # 307
0200 7800        R     MOV     R0,#LOW control_mode_menu
0202 7C00        R     MOV     R4,#HIGH control_mode_menu
0204 7D01              MOV     R5,#01H
0206 7BFF              MOV     R3,#0FFH
0208 7A00        R     MOV     R2,#HIGH _?ix1026
020A 7900        R     MOV     R1,#LOW _?ix1026
020C 7E00              MOV     R6,#00H
020E 7F3B              MOV     R7,#03BH
0210 120000      E     LCALL   ?C?COPYAMD
                                           ; SOURCE LINE # 308
0213 7800        R     MOV     R0,#LOW yes_no_menu
0215 7C00        R     MOV     R4,#HIGH yes_no_menu
0217 7D01              MOV     R5,#01H
0219 7BFF              MOV     R3,#0FFH
021B 7A00        R     MOV     R2,#HIGH _?ix1027
021D 7900        R     MOV     R1,#LOW _?ix1027
021F 7E00              MOV     R6,#00H
0221 7F2A              MOV     R7,#02AH
0223 120000      E     LCALL   ?C?COPYAMD
                                           ; SOURCE LINE # 311
0226 7B01              MOV     R3,#01H
0228 7A00        R     MOV     R2,#HIGH id_str
022A 7900        R     MOV     R1,#LOW id_str
022C 120000      E     LCALL   _strlen
022F 900000      R     MOV     DPTR,#id_str_len
0232 EF                MOV     A,R7
0233 F0                MOVX    @DPTR,A
                                           ; SOURCE LINE # 312
0234 7B01              MOV     R3,#01H
0236 7A00        R     MOV     R2,#HIGH pos_pid_str
0238 7900        R     MOV     R1,#LOW pos_pid_str
023A 120000      E     LCALL   _strlen
023D 900000      R     MOV     DPTR,#pos_pid_str_len
0240 EF                MOV     A,R7
0241 F0                MOVX    @DPTR,A
                                           ; SOURCE LINE # 313
0242 7B01              MOV     R3,#01H
0244 7A00        R     MOV     R2,#HIGH curr_pid_str
0246 7900        R     MOV     R1,#LOW curr_pid_str
0248 120000      E     LCALL   _strlen
024B 900000      R     MOV     DPTR,#curr_pid_str_len
C51 COMPILER V9.51   COMMAND_PROCESSING                                                    02/07/2017 16:12:02 PAGE 43  

024E EF                MOV     A,R7
024F F0                MOVX    @DPTR,A
                                           ; SOURCE LINE # 315
0250 7B01              MOV     R3,#01H
0252 7A00        R     MOV     R2,#HIGH res_str
0254 7900        R     MOV     R1,#LOW res_str
0256 120000      E     LCALL   _strlen
0259 900000      R     MOV     DPTR,#res_str_len
025C EF                MOV     A,R7
025D F0                MOVX    @DPTR,A
                                           ; SOURCE LINE # 316
025E 7B01              MOV     R3,#01H
0260 7A00        R     MOV     R2,#HIGH m_off_str
0262 7900        R     MOV     R1,#LOW m_off_str
0264 120000      E     LCALL   _strlen
0267 900000      R     MOV     DPTR,#m_off_str_len
026A EF                MOV     A,R7
026B F0                MOVX    @DPTR,A
                                           ; SOURCE LINE # 317
026C 7B01              MOV     R3,#01H
026E 7A00        R     MOV     R2,#HIGH mult_str
0270 7900        R     MOV     R1,#LOW mult_str
0272 120000      E     LCALL   _strlen
0275 900000      R     MOV     DPTR,#mult_str_len
0278 EF                MOV     A,R7
0279 F0                MOVX    @DPTR,A
                                           ; SOURCE LINE # 319
027A 7B01              MOV     R3,#01H
027C 7A00        R     MOV     R2,#HIGH pos_lim_str
027E 7900        R     MOV     R1,#LOW pos_lim_str
0280 120000      E     LCALL   _strlen
0283 900000      R     MOV     DPTR,#pos_lim_str_len
0286 EF                MOV     A,R7
0287 F0                MOVX    @DPTR,A
                                           ; SOURCE LINE # 320
0288 7B01              MOV     R3,#01H
028A 7A00        R     MOV     R2,#HIGH max_step_str
028C 7900        R     MOV     R1,#LOW max_step_str
028E 120000      E     LCALL   _strlen
0291 900000      R     MOV     DPTR,#max_step_str_len
0294 EF                MOV     A,R7
0295 F0                MOVX    @DPTR,A
                                           ; SOURCE LINE # 321
0296 7B01              MOV     R3,#01H
0298 7A00        R     MOV     R2,#HIGH curr_limit_str
029A 7900        R     MOV     R1,#LOW curr_limit_str
029C 120000      E     LCALL   _strlen
029F 900000      R     MOV     DPTR,#curr_limit_str_len
02A2 EF                MOV     A,R7
02A3 F0                MOVX    @DPTR,A
                                           ; SOURCE LINE # 323
02A4 7B01              MOV     R3,#01H
02A6 7A00        R     MOV     R2,#HIGH emg_thr_str
02A8 7900        R     MOV     R1,#LOW emg_thr_str
02AA 120000      E     LCALL   _strlen
02AD 900000      R     MOV     DPTR,#emg_thr_str_len
02B0 EF                MOV     A,R7
02B1 F0                MOVX    @DPTR,A
                                           ; SOURCE LINE # 324
02B2 7B01              MOV     R3,#01H
02B4 7A00        R     MOV     R2,#HIGH emg_max_val_str
02B6 7900        R     MOV     R1,#LOW emg_max_val_str
C51 COMPILER V9.51   COMMAND_PROCESSING                                                    02/07/2017 16:12:02 PAGE 44  

02B8 120000      E     LCALL   _strlen
02BB 900000      R     MOV     DPTR,#emg_max_val_str_len
02BE EF                MOV     A,R7
02BF F0                MOVX    @DPTR,A
                                           ; SOURCE LINE # 325
02C0 7B01              MOV     R3,#01H
02C2 7A00        R     MOV     R2,#HIGH emg_max_speed_str
02C4 7900        R     MOV     R1,#LOW emg_max_speed_str
02C6 120000      E     LCALL   _strlen
02C9 900000      R     MOV     DPTR,#emg_max_speed_str_len
02CC EF                MOV     A,R7
02CD F0                MOVX    @DPTR,A
                                           ; SOURCE LINE # 327
02CE 7B01              MOV     R3,#01H
02D0 7A00        R     MOV     R2,#HIGH handle_ratio_str
02D2 7900        R     MOV     R1,#LOW handle_ratio_str
02D4 120000      E     LCALL   _strlen
02D7 900000      R     MOV     DPTR,#handle_ratio_str_len
02DA EF                MOV     A,R7
02DB F0                MOVX    @DPTR,A
                                           ; SOURCE LINE # 328
02DC 7B01              MOV     R3,#01H
02DE 7A00        R     MOV     R2,#HIGH curr_lookup_str
02E0 7900        R     MOV     R1,#LOW curr_lookup_str
02E2 120000      E     LCALL   _strlen
02E5 900000      R     MOV     DPTR,#curr_lookup_str_len
02E8 EF                MOV     A,R7
02E9 F0                MOVX    @DPTR,A
                                           ; SOURCE LINE # 330
02EA 7B01              MOV     R3,#01H
02EC 7A00        R     MOV     R2,#HIGH closure_speed_str
02EE 7900        R     MOV     R1,#LOW closure_speed_str
02F0 120000      E     LCALL   _strlen
02F3 900000      R     MOV     DPTR,#closure_speed_str_len
02F6 EF                MOV     A,R7
02F7 F0                MOVX    @DPTR,A
                                           ; SOURCE LINE # 331
02F8 7B01              MOV     R3,#01H
02FA 7A00        R     MOV     R2,#HIGH joystick_thr_str
02FC 7900        R     MOV     R1,#LOW joystick_thr_str
02FE 120000      E     LCALL   _strlen
0301 900000      R     MOV     DPTR,#joystick_thr_str_len
0304 EF                MOV     A,R7
0305 F0                MOVX    @DPTR,A
                                           ; SOURCE LINE # 332
0306 7B01              MOV     R3,#01H
0308 7A00        R     MOV     R2,#HIGH joystick_gains_str
030A 7900        R     MOV     R1,#LOW joystick_gains_str
030C 120000      E     LCALL   _strlen
030F 900000      R     MOV     DPTR,#joystick_gains_str_len
0312 EF                MOV     A,R7
0313 F0                MOVX    @DPTR,A
                                           ; SOURCE LINE # 334
0314 7B01              MOV     R3,#01H
0316 7A00        R     MOV     R2,#HIGH input_mode_menu
0318 7900        R     MOV     R1,#LOW input_mode_menu
031A 120000      E     LCALL   _strlen
031D 900000      R     MOV     DPTR,#input_mode_menu_len
0320 EF                MOV     A,R7
0321 F0                MOVX    @DPTR,A
                                           ; SOURCE LINE # 335
0322 7B01              MOV     R3,#01H
C51 COMPILER V9.51   COMMAND_PROCESSING                                                    02/07/2017 16:12:02 PAGE 45  

0324 7A00        R     MOV     R2,#HIGH control_mode_menu
0326 7900        R     MOV     R1,#LOW control_mode_menu
0328 120000      E     LCALL   _strlen
032B 900000      R     MOV     DPTR,#control_mode_menu_len
032E EF                MOV     A,R7
032F F0                MOVX    @DPTR,A
                                           ; SOURCE LINE # 336
0330 7B01              MOV     R3,#01H
0332 7A00        R     MOV     R2,#HIGH yes_no_menu
0334 7900        R     MOV     R1,#LOW yes_no_menu
0336 120000      E     LCALL   _strlen
0339 900000      R     MOV     DPTR,#yes_no_menu_len
033C EF                MOV     A,R7
033D F0                MOVX    @DPTR,A
                                           ; SOURCE LINE # 338
033E 900000      R     MOV     DPTR,#packet_data
0341 740C              MOV     A,#0CH
0343 F0                MOVX    @DPTR,A
                                           ; SOURCE LINE # 339
0344 A3                INC     DPTR
0345 7418              MOV     A,#018H
0347 F0                MOVX    @DPTR,A
                                           ; SOURCE LINE # 341
0348 900000      R     MOV     DPTR,#index
034B E0                MOVX    A,@DPTR
034C FE                MOV     R6,A
034D A3                INC     DPTR
034E E0                MOVX    A,@DPTR
034F FF                MOV     R7,A
0350 EE                MOV     A,R6
0351 6003              JZ      $ + 5H
0353 020000      R     LJMP    ?C0224
0356 EF                MOV     A,R7
0357 B41900            CJNE    A,#019H,?C0360
035A         ?C0360:
035A 4003              JC      $ + 5H
035C 020000      R     LJMP    ?C0224
035F 900000      R     MOV     DPTR,#?C0361
0362 F8                MOV     R0,A
0363 28                ADD     A,R0
0364 28                ADD     A,R0
0365 73                JMP     @A+DPTR
0366         ?C0361:
0366 020000      R     LJMP    ?C0051
0369 020000      R     LJMP    ?C0175
036C 020000      R     LJMP    ?C0176
036F 020000      R     LJMP    ?C0179
0372 020000      R     LJMP    ?C0182
0375 020000      R     LJMP    ?C0185
0378 020000      R     LJMP    ?C0186
037B 020000      R     LJMP    ?C0187
037E 020000      R     LJMP    ?C0191
0381 020000      R     LJMP    ?C0195
0384 020000      R     LJMP    ?C0199
0387 020000      R     LJMP    ?C0200
038A 020000      R     LJMP    ?C0204
038D 020000      R     LJMP    ?C0207
0390 020000      R     LJMP    ?C0208
0393 020000      R     LJMP    ?C0209
0396 020000      R     LJMP    ?C0210
0399 020000      R     LJMP    ?C0211
039C 020000      R     LJMP    ?C0212
C51 COMPILER V9.51   COMMAND_PROCESSING                                                    02/07/2017 16:12:02 PAGE 46  

039F 020000      R     LJMP    ?C0215
03A2 020000      R     LJMP    ?C0216
03A5 020000      R     LJMP    ?C0217
03A8 020000      R     LJMP    ?C0221
03AB 020000      R     LJMP    ?C0222
03AE 020000      R     LJMP    ?C0223
                                           ; SOURCE LINE # 342
03B1         ?C0051:
                                           ; SOURCE LINE # 345
03B1 900000      R     MOV     DPTR,#packet_data+02H
03B4 7402              MOV     A,#02H
03B6 F0                MOVX    @DPTR,A
                                           ; SOURCE LINE # 346
03B7 A3                INC     DPTR
03B8 14                DEC     A
03B9 F0                MOVX    @DPTR,A
                                           ; SOURCE LINE # 347
03BA 900000      E     MOV     DPTR,#c_mem+01H
03BD E0                MOVX    A,@DPTR
03BE 900000      R     MOV     DPTR,#packet_data+04H
03C1 F0                MOVX    @DPTR,A
                                           ; SOURCE LINE # 348
03C2 900000      R     MOV     DPTR,#id_str_len
03C5 E0                MOVX    A,@DPTR
03C6 750000      R     MOV     i,#00H
03C9 F500        R     MOV     i+01H,A
03CB         ?C0052:
03CB E500        R     MOV     A,i+01H
03CD 4500        R     ORL     A,i
03CF 602E              JZ      ?C0053
                                           ; SOURCE LINE # 349
03D1 900000      R     MOV     DPTR,#id_str_len
03D4 E0                MOVX    A,@DPTR
03D5 C3                CLR     C
03D6 9500        R     SUBB    A,i+01H
03D8 FF                MOV     R7,A
03D9 E4                CLR     A
03DA 9500        R     SUBB    A,i
03DC FE                MOV     R6,A
03DD 7400        R     MOV     A,#LOW id_str
03DF 2F                ADD     A,R7
03E0 F582              MOV     DPL,A
03E2 7400        R     MOV     A,#HIGH id_str
03E4 3E                ADDC    A,R6
03E5 F583              MOV     DPH,A
03E7 E0                MOVX    A,@DPTR
03E8 FD                MOV     R5,A
03E9 7400        R     MOV     A,#LOW packet_data+05H
03EB 2F                ADD     A,R7
03EC F582              MOV     DPL,A
03EE 7400        R     MOV     A,#HIGH packet_data+05H
03F0 3E                ADDC    A,R6
03F1 F583              MOV     DPH,A
03F3 ED                MOV     A,R5
03F4 F0                MOVX    @DPTR,A
03F5 E500        R     MOV     A,i+01H
03F7 1500        R     DEC     i+01H
03F9 7002              JNZ     ?C0362
03FB 1500        R     DEC     i
03FD         ?C0362:
03FD 80CC              SJMP    ?C0052
03FF         ?C0053:
C51 COMPILER V9.51   COMMAND_PROCESSING                                                    02/07/2017 16:12:02 PAGE 47  

                                           ; SOURCE LINE # 353
03FF 900000      R     MOV     DPTR,#packet_data+034H
0402 7407              MOV     A,#07H
0404 F0                MOVX    @DPTR,A
                                           ; SOURCE LINE # 354
0405 A3                INC     DPTR
0406 7403              MOV     A,#03H
0408 F0                MOVX    @DPTR,A
                                           ; SOURCE LINE # 355
0409 900000      E     MOV     DPTR,#c_mem+036H
040C E0                MOVX    A,@DPTR
040D 6403              XRL     A,#03H
040F 6068              JZ      ?C0055
                                           ; SOURCE LINE # 356
0411 900000      E     MOV     DPTR,#c_mem+02H
0414 E0                MOVX    A,@DPTR
0415 FC                MOV     R4,A
0416 A3                INC     DPTR
0417 E0                MOVX    A,@DPTR
0418 FD                MOV     R5,A
0419 A3                INC     DPTR
041A E0                MOVX    A,@DPTR
041B FE                MOV     R6,A
041C A3                INC     DPTR
041D E0                MOVX    A,@DPTR
041E FF                MOV     R7,A
041F EC                MOV     A,R4
0420 120000      E     LCALL   ?C?FCASTL
0423 E4                CLR     A
0424 FB                MOV     R3,A
0425 FA                MOV     R2,A
0426 7980              MOV     R1,#080H
0428 7847              MOV     R0,#047H
042A 120000      E     LCALL   ?C?FPDIV
042D 900000      R     MOV     DPTR,#packet_data+036H
0430 120000      E     LCALL   ?C?LSTXDATA
                                           ; SOURCE LINE # 357
0433 900000      E     MOV     DPTR,#c_mem+06H
0436 E0                MOVX    A,@DPTR
0437 FC                MOV     R4,A
0438 A3                INC     DPTR
0439 E0                MOVX    A,@DPTR
043A FD                MOV     R5,A
043B A3                INC     DPTR
043C E0                MOVX    A,@DPTR
043D FE                MOV     R6,A
043E A3                INC     DPTR
043F E0                MOVX    A,@DPTR
0440 FF                MOV     R7,A
0441 EC                MOV     A,R4
0442 120000      E     LCALL   ?C?FCASTL
0445 E4                CLR     A
0446 FB                MOV     R3,A
0447 FA                MOV     R2,A
0448 7980              MOV     R1,#080H
044A 7847              MOV     R0,#047H
044C 120000      E     LCALL   ?C?FPDIV
044F 900000      R     MOV     DPTR,#packet_data+03AH
0452 120000      E     LCALL   ?C?LSTXDATA
                                           ; SOURCE LINE # 358
0455 900000      E     MOV     DPTR,#c_mem+0AH
0458 E0                MOVX    A,@DPTR
C51 COMPILER V9.51   COMMAND_PROCESSING                                                    02/07/2017 16:12:02 PAGE 48  

0459 FC                MOV     R4,A
045A A3                INC     DPTR
045B E0                MOVX    A,@DPTR
045C FD                MOV     R5,A
045D A3                INC     DPTR
045E E0                MOVX    A,@DPTR
045F FE                MOV     R6,A
0460 A3                INC     DPTR
0461 E0                MOVX    A,@DPTR
0462 FF                MOV     R7,A
0463 EC                MOV     A,R4
0464 120000      E     LCALL   ?C?FCASTL
0467 E4                CLR     A
0468 FB                MOV     R3,A
0469 FA                MOV     R2,A
046A 7980              MOV     R1,#080H
046C 7847              MOV     R0,#047H
046E 120000      E     LCALL   ?C?FPDIV
0471 900000      R     MOV     DPTR,#packet_data+03EH
0474 120000      E     LCALL   ?C?LSTXDATA
                                           ; SOURCE LINE # 359
0477 8066              SJMP    ?C0056
0479         ?C0055:
                                           ; SOURCE LINE # 360
                                           ; SOURCE LINE # 361
0479 900000      E     MOV     DPTR,#c_mem+01AH
047C E0                MOVX    A,@DPTR
047D FC                MOV     R4,A
047E A3                INC     DPTR
047F E0                MOVX    A,@DPTR
0480 FD                MOV     R5,A
0481 A3                INC     DPTR
0482 E0                MOVX    A,@DPTR
0483 FE                MOV     R6,A
0484 A3                INC     DPTR
0485 E0                MOVX    A,@DPTR
0486 FF                MOV     R7,A
0487 EC                MOV     A,R4
0488 120000      E     LCALL   ?C?FCASTL
048B E4                CLR     A
048C FB                MOV     R3,A
048D FA                MOV     R2,A
048E 7980              MOV     R1,#080H
0490 7847              MOV     R0,#047H
0492 120000      E     LCALL   ?C?FPDIV
0495 900000      R     MOV     DPTR,#packet_data+036H
0498 120000      E     LCALL   ?C?LSTXDATA
                                           ; SOURCE LINE # 362
049B 900000      E     MOV     DPTR,#c_mem+01EH
049E E0                MOVX    A,@DPTR
049F FC                MOV     R4,A
04A0 A3                INC     DPTR
04A1 E0                MOVX    A,@DPTR
04A2 FD                MOV     R5,A
04A3 A3                INC     DPTR
04A4 E0                MOVX    A,@DPTR
04A5 FE                MOV     R6,A
04A6 A3                INC     DPTR
04A7 E0                MOVX    A,@DPTR
04A8 FF                MOV     R7,A
04A9 EC                MOV     A,R4
04AA 120000      E     LCALL   ?C?FCASTL
C51 COMPILER V9.51   COMMAND_PROCESSING                                                    02/07/2017 16:12:02 PAGE 49  

04AD E4                CLR     A
04AE FB                MOV     R3,A
04AF FA                MOV     R2,A
04B0 7980              MOV     R1,#080H
04B2 7847              MOV     R0,#047H
04B4 120000      E     LCALL   ?C?FPDIV
04B7 900000      R     MOV     DPTR,#packet_data+03AH
04BA 120000      E     LCALL   ?C?LSTXDATA
                                           ; SOURCE LINE # 363
04BD 900000      E     MOV     DPTR,#c_mem+022H
04C0 E0                MOVX    A,@DPTR
04C1 FC                MOV     R4,A
04C2 A3                INC     DPTR
04C3 E0                MOVX    A,@DPTR
04C4 FD                MOV     R5,A
04C5 A3                INC     DPTR
04C6 E0                MOVX    A,@DPTR
04C7 FE                MOV     R6,A
04C8 A3                INC     DPTR
04C9 E0                MOVX    A,@DPTR
04CA FF                MOV     R7,A
04CB EC                MOV     A,R4
04CC 120000      E     LCALL   ?C?FCASTL
04CF E4                CLR     A
04D0 FB                MOV     R3,A
04D1 FA                MOV     R2,A
04D2 7980              MOV     R1,#080H
04D4 7847              MOV     R0,#047H
04D6 120000      E     LCALL   ?C?FPDIV
04D9 900000      R     MOV     DPTR,#packet_data+03EH
04DC 120000      E     LCALL   ?C?LSTXDATA
                                           ; SOURCE LINE # 364
04DF         ?C0056:
                                           ; SOURCE LINE # 366
04DF 900000      R     MOV     DPTR,#pos_pid_str_len
04E2 E0                MOVX    A,@DPTR
04E3 750000      R     MOV     i,#00H
04E6 F500        R     MOV     i+01H,A
04E8         ?C0057:
04E8 E500        R     MOV     A,i+01H
04EA 4500        R     ORL     A,i
04EC 602E              JZ      ?C0058
                                           ; SOURCE LINE # 367
04EE 900000      R     MOV     DPTR,#pos_pid_str_len
04F1 E0                MOVX    A,@DPTR
04F2 C3                CLR     C
04F3 9500        R     SUBB    A,i+01H
04F5 FF                MOV     R7,A
04F6 E4                CLR     A
04F7 9500        R     SUBB    A,i
04F9 FE                MOV     R6,A
04FA 7400        R     MOV     A,#LOW pos_pid_str
04FC 2F                ADD     A,R7
04FD F582              MOV     DPL,A
04FF 7400        R     MOV     A,#HIGH pos_pid_str
0501 3E                ADDC    A,R6
0502 F583              MOV     DPH,A
0504 E0                MOVX    A,@DPTR
0505 FD                MOV     R5,A
0506 7400        R     MOV     A,#LOW packet_data+042H
0508 2F                ADD     A,R7
0509 F582              MOV     DPL,A
C51 COMPILER V9.51   COMMAND_PROCESSING                                                    02/07/2017 16:12:02 PAGE 50  

050B 7400        R     MOV     A,#HIGH packet_data+042H
050D 3E                ADDC    A,R6
050E F583              MOV     DPH,A
0510 ED                MOV     A,R5
0511 F0                MOVX    @DPTR,A
0512 E500        R     MOV     A,i+01H
0514 1500        R     DEC     i+01H
0516 7002              JNZ     ?C0363
0518 1500        R     DEC     i
051A         ?C0363:
051A 80CC              SJMP    ?C0057
051C         ?C0058:
                                           ; SOURCE LINE # 371
051C 900000      R     MOV     DPTR,#packet_data+066H
051F 7407              MOV     A,#07H
0521 F0                MOVX    @DPTR,A
                                           ; SOURCE LINE # 372
0522 A3                INC     DPTR
0523 7403              MOV     A,#03H
0525 F0                MOVX    @DPTR,A
                                           ; SOURCE LINE # 373
0526 900000      E     MOV     DPTR,#c_mem+036H
0529 E0                MOVX    A,@DPTR
052A 6403              XRL     A,#03H
052C 6068              JZ      ?C0060
                                           ; SOURCE LINE # 374
052E 900000      E     MOV     DPTR,#c_mem+0EH
0531 E0                MOVX    A,@DPTR
0532 FC                MOV     R4,A
0533 A3                INC     DPTR
0534 E0                MOVX    A,@DPTR
0535 FD                MOV     R5,A
0536 A3                INC     DPTR
0537 E0                MOVX    A,@DPTR
0538 FE                MOV     R6,A
0539 A3                INC     DPTR
053A E0                MOVX    A,@DPTR
053B FF                MOV     R7,A
053C EC                MOV     A,R4
053D 120000      E     LCALL   ?C?FCASTL
0540 E4                CLR     A
0541 FB                MOV     R3,A
0542 FA                MOV     R2,A
0543 7980              MOV     R1,#080H
0545 7847              MOV     R0,#047H
0547 120000      E     LCALL   ?C?FPDIV
054A 900000      R     MOV     DPTR,#packet_data+068H
054D 120000      E     LCALL   ?C?LSTXDATA
                                           ; SOURCE LINE # 375
0550 900000      E     MOV     DPTR,#c_mem+012H
0553 E0                MOVX    A,@DPTR
0554 FC                MOV     R4,A
0555 A3                INC     DPTR
0556 E0                MOVX    A,@DPTR
0557 FD                MOV     R5,A
0558 A3                INC     DPTR
0559 E0                MOVX    A,@DPTR
055A FE                MOV     R6,A
055B A3                INC     DPTR
055C E0                MOVX    A,@DPTR
055D FF                MOV     R7,A
055E EC                MOV     A,R4
C51 COMPILER V9.51   COMMAND_PROCESSING                                                    02/07/2017 16:12:02 PAGE 51  

055F 120000      E     LCALL   ?C?FCASTL
0562 E4                CLR     A
0563 FB                MOV     R3,A
0564 FA                MOV     R2,A
0565 7980              MOV     R1,#080H
0567 7847              MOV     R0,#047H
0569 120000      E     LCALL   ?C?FPDIV
056C 900000      R     MOV     DPTR,#packet_data+06CH
056F 120000      E     LCALL   ?C?LSTXDATA
                                           ; SOURCE LINE # 376
0572 900000      E     MOV     DPTR,#c_mem+016H
0575 E0                MOVX    A,@DPTR
0576 FC                MOV     R4,A
0577 A3                INC     DPTR
0578 E0                MOVX    A,@DPTR
0579 FD                MOV     R5,A
057A A3                INC     DPTR
057B E0                MOVX    A,@DPTR
057C FE                MOV     R6,A
057D A3                INC     DPTR
057E E0                MOVX    A,@DPTR
057F FF                MOV     R7,A
0580 EC                MOV     A,R4
0581 120000      E     LCALL   ?C?FCASTL
0584 E4                CLR     A
0585 FB                MOV     R3,A
0586 FA                MOV     R2,A
0587 7980              MOV     R1,#080H
0589 7847              MOV     R0,#047H
058B 120000      E     LCALL   ?C?FPDIV
058E 900000      R     MOV     DPTR,#packet_data+070H
0591 120000      E     LCALL   ?C?LSTXDATA
                                           ; SOURCE LINE # 377
0594 8066              SJMP    ?C0061
0596         ?C0060:
                                           ; SOURCE LINE # 378
                                           ; SOURCE LINE # 379
0596 900000      E     MOV     DPTR,#c_mem+026H
0599 E0                MOVX    A,@DPTR
059A FC                MOV     R4,A
059B A3                INC     DPTR
059C E0                MOVX    A,@DPTR
059D FD                MOV     R5,A
059E A3                INC     DPTR
059F E0                MOVX    A,@DPTR
05A0 FE                MOV     R6,A
05A1 A3                INC     DPTR
05A2 E0                MOVX    A,@DPTR
05A3 FF                MOV     R7,A
05A4 EC                MOV     A,R4
05A5 120000      E     LCALL   ?C?FCASTL
05A8 E4                CLR     A
05A9 FB                MOV     R3,A
05AA FA                MOV     R2,A
05AB 7980              MOV     R1,#080H
05AD 7847              MOV     R0,#047H
05AF 120000      E     LCALL   ?C?FPDIV
05B2 900000      R     MOV     DPTR,#packet_data+068H
05B5 120000      E     LCALL   ?C?LSTXDATA
                                           ; SOURCE LINE # 380
05B8 900000      E     MOV     DPTR,#c_mem+02AH
05BB E0                MOVX    A,@DPTR
C51 COMPILER V9.51   COMMAND_PROCESSING                                                    02/07/2017 16:12:02 PAGE 52  

05BC FC                MOV     R4,A
05BD A3                INC     DPTR
05BE E0                MOVX    A,@DPTR
05BF FD                MOV     R5,A
05C0 A3                INC     DPTR
05C1 E0                MOVX    A,@DPTR
05C2 FE                MOV     R6,A
05C3 A3                INC     DPTR
05C4 E0                MOVX    A,@DPTR
05C5 FF                MOV     R7,A
05C6 EC                MOV     A,R4
05C7 120000      E     LCALL   ?C?FCASTL
05CA E4                CLR     A
05CB FB                MOV     R3,A
05CC FA                MOV     R2,A
05CD 7980              MOV     R1,#080H
05CF 7847              MOV     R0,#047H
05D1 120000      E     LCALL   ?C?FPDIV
05D4 900000      R     MOV     DPTR,#packet_data+06CH
05D7 120000      E     LCALL   ?C?LSTXDATA
                                           ; SOURCE LINE # 381
05DA 900000      E     MOV     DPTR,#c_mem+02EH
05DD E0                MOVX    A,@DPTR
05DE FC                MOV     R4,A
05DF A3                INC     DPTR
05E0 E0                MOVX    A,@DPTR
05E1 FD                MOV     R5,A
05E2 A3                INC     DPTR
05E3 E0                MOVX    A,@DPTR
05E4 FE                MOV     R6,A
05E5 A3                INC     DPTR
05E6 E0                MOVX    A,@DPTR
05E7 FF                MOV     R7,A
05E8 EC                MOV     A,R4
05E9 120000      E     LCALL   ?C?FCASTL
05EC E4                CLR     A
05ED FB                MOV     R3,A
05EE FA                MOV     R2,A
05EF 7980              MOV     R1,#080H
05F1 7847              MOV     R0,#047H
05F3 120000      E     LCALL   ?C?FPDIV
05F6 900000      R     MOV     DPTR,#packet_data+070H
05F9 120000      E     LCALL   ?C?LSTXDATA
                                           ; SOURCE LINE # 382
05FC         ?C0061:
                                           ; SOURCE LINE # 384
05FC 900000      R     MOV     DPTR,#curr_pid_str_len
05FF E0                MOVX    A,@DPTR
0600 750000      R     MOV     i,#00H
0603 F500        R     MOV     i+01H,A
0605         ?C0062:
0605 E500        R     MOV     A,i+01H
0607 4500        R     ORL     A,i
0609 602E              JZ      ?C0063
                                           ; SOURCE LINE # 385
060B 900000      R     MOV     DPTR,#curr_pid_str_len
060E E0                MOVX    A,@DPTR
060F C3                CLR     C
0610 9500        R     SUBB    A,i+01H
0612 FF                MOV     R7,A
0613 E4                CLR     A
0614 9500        R     SUBB    A,i
C51 COMPILER V9.51   COMMAND_PROCESSING                                                    02/07/2017 16:12:02 PAGE 53  

0616 FE                MOV     R6,A
0617 7400        R     MOV     A,#LOW curr_pid_str
0619 2F                ADD     A,R7
061A F582              MOV     DPL,A
061C 7400        R     MOV     A,#HIGH curr_pid_str
061E 3E                ADDC    A,R6
061F F583              MOV     DPH,A
0621 E0                MOVX    A,@DPTR
0622 FD                MOV     R5,A
0623 7400        R     MOV     A,#LOW packet_data+074H
0625 2F                ADD     A,R7
0626 F582              MOV     DPL,A
0628 7400        R     MOV     A,#HIGH packet_data+074H
062A 3E                ADDC    A,R6
062B F583              MOV     DPH,A
062D ED                MOV     A,R5
062E F0                MOVX    @DPTR,A
062F E500        R     MOV     A,i+01H
0631 1500        R     DEC     i+01H
0633 7002              JNZ     ?C0364
0635 1500        R     DEC     i
0637         ?C0364:
0637 80CC              SJMP    ?C0062
0639         ?C0063:
                                           ; SOURCE LINE # 389
0639 E4                CLR     A
063A 900000      R     MOV     DPTR,#packet_data+098H
063D F0                MOVX    @DPTR,A
                                           ; SOURCE LINE # 390
063E A3                INC     DPTR
063F 04                INC     A
0640 F0                MOVX    @DPTR,A
                                           ; SOURCE LINE # 391
0641 900000      E     MOV     DPTR,#c_mem+034H
0644 E0                MOVX    A,@DPTR
0645 900000      R     MOV     DPTR,#packet_data+09AH
0648 F0                MOVX    @DPTR,A
                                           ; SOURCE LINE # 392
0649 900000      E     MOV     DPTR,#c_mem+034H
064C 601F              JZ      ?C0065
                                           ; SOURCE LINE # 393
064E 900000      E     MOV     DPTR,#?_strcat?BYTE+03H
0651 74FF              MOV     A,#0FFH
0653 F0                MOVX    @DPTR,A
0654 A3                INC     DPTR
0655 7400        R     MOV     A,#HIGH ?SC_0
0657 F0                MOVX    @DPTR,A
0658 A3                INC     DPTR
0659 7400        R     MOV     A,#LOW ?SC_0
065B F0                MOVX    @DPTR,A
065C 7B01              MOV     R3,#01H
065E 7A00        R     MOV     R2,#HIGH startup_str
0660 7900        R     MOV     R1,#LOW startup_str
0662 120000      E     LCALL   _strcat
                                           ; SOURCE LINE # 394
0665 900000      R     MOV     DPTR,#string_lenght
0668 741C              MOV     A,#01CH
066A F0                MOVX    @DPTR,A
                                           ; SOURCE LINE # 395
066B 801D              SJMP    ?C0066
066D         ?C0065:
                                           ; SOURCE LINE # 396
C51 COMPILER V9.51   COMMAND_PROCESSING                                                    02/07/2017 16:12:02 PAGE 54  

                                           ; SOURCE LINE # 397
066D 900000      E     MOV     DPTR,#?_strcat?BYTE+03H
0670 74FF              MOV     A,#0FFH
0672 F0                MOVX    @DPTR,A
0673 A3                INC     DPTR
0674 7400        R     MOV     A,#HIGH ?SC_6
0676 F0                MOVX    @DPTR,A
0677 A3                INC     DPTR
0678 7400        R     MOV     A,#LOW ?SC_6
067A F0                MOVX    @DPTR,A
067B 7B01              MOV     R3,#01H
067D 7A00        R     MOV     R2,#HIGH startup_str
067F 7900        R     MOV     R1,#LOW startup_str
0681 120000      E     LCALL   _strcat
                                           ; SOURCE LINE # 398
0684 900000      R     MOV     DPTR,#string_lenght
0687 741B              MOV     A,#01BH
0689 F0                MOVX    @DPTR,A
                                           ; SOURCE LINE # 399
068A         ?C0066:
                                           ; SOURCE LINE # 400
068A 900000      R     MOV     DPTR,#string_lenght
068D E0                MOVX    A,@DPTR
068E 750000      R     MOV     i,#00H
0691 F500        R     MOV     i+01H,A
0693         ?C0067:
0693 E500        R     MOV     A,i+01H
0695 4500        R     ORL     A,i
0697 602E              JZ      ?C0068
                                           ; SOURCE LINE # 401
0699 900000      R     MOV     DPTR,#string_lenght
069C E0                MOVX    A,@DPTR
069D C3                CLR     C
069E 9500        R     SUBB    A,i+01H
06A0 FF                MOV     R7,A
06A1 E4                CLR     A
06A2 9500        R     SUBB    A,i
06A4 FE                MOV     R6,A
06A5 7400        R     MOV     A,#LOW startup_str
06A7 2F                ADD     A,R7
06A8 F582              MOV     DPL,A
06AA 7400        R     MOV     A,#HIGH startup_str
06AC 3E                ADDC    A,R6
06AD F583              MOV     DPH,A
06AF E0                MOVX    A,@DPTR
06B0 FD                MOV     R5,A
06B1 7400        R     MOV     A,#LOW packet_data+09BH
06B3 2F                ADD     A,R7
06B4 F582              MOV     DPL,A
06B6 7400        R     MOV     A,#HIGH packet_data+09BH
06B8 3E                ADDC    A,R6
06B9 F583              MOV     DPH,A
06BB ED                MOV     A,R5
06BC F0                MOVX    @DPTR,A
06BD E500        R     MOV     A,i+01H
06BF 1500        R     DEC     i+01H
06C1 7002              JNZ     ?C0365
06C3 1500        R     DEC     i
06C5         ?C0365:
06C5 80CC              SJMP    ?C0067
06C7         ?C0068:
                                           ; SOURCE LINE # 403
C51 COMPILER V9.51   COMMAND_PROCESSING                                                    02/07/2017 16:12:02 PAGE 55  

06C7 900000      R     MOV     DPTR,#string_lenght
06CA E0                MOVX    A,@DPTR
06CB 2400        R     ADD     A,#LOW packet_data+09BH
06CD F582              MOV     DPL,A
06CF E4                CLR     A
06D0 3400        R     ADDC    A,#HIGH packet_data+09BH
06D2 F583              MOV     DPH,A
06D4 7403              MOV     A,#03H
06D6 F0                MOVX    @DPTR,A
                                           ; SOURCE LINE # 407
06D7 E4                CLR     A
06D8 900000      R     MOV     DPTR,#packet_data+0CAH
06DB F0                MOVX    @DPTR,A
                                           ; SOURCE LINE # 408
06DC A3                INC     DPTR
06DD 04                INC     A
06DE F0                MOVX    @DPTR,A
                                           ; SOURCE LINE # 409
06DF 900000      E     MOV     DPTR,#c_mem+035H
06E2 E0                MOVX    A,@DPTR
06E3 900000      R     MOV     DPTR,#packet_data+0CCH
06E6 F0                MOVX    @DPTR,A
                                           ; SOURCE LINE # 410
06E7 900000      E     MOV     DPTR,#c_mem+035H
06EA B40700            CJNE    A,#07H,?C0366
06ED         ?C0366:
06ED 4003              JC      $ + 5H
06EF 020000      R     LJMP    ?C0070
06F2 900000      R     MOV     DPTR,#?C0367
06F5 F8                MOV     R0,A
06F6 28                ADD     A,R0
06F7 28                ADD     A,R0
06F8 73                JMP     @A+DPTR
06F9         ?C0367:
06F9 020000      R     LJMP    ?C0071
06FC 020000      R     LJMP    ?C0072
06FF 020000      R     LJMP    ?C0073
0702 020000      R     LJMP    ?C0074
0705 020000      R     LJMP    ?C0075
0708 020000      R     LJMP    ?C0076
070B 020000      R     LJMP    ?C0077
                                           ; SOURCE LINE # 411
070E         ?C0071:
                                           ; SOURCE LINE # 412
070E 900000      E     MOV     DPTR,#?_strcat?BYTE+03H
0711 74FF              MOV     A,#0FFH
0713 F0                MOVX    @DPTR,A
0714 A3                INC     DPTR
0715 7400        R     MOV     A,#HIGH ?SC_11
0717 F0                MOVX    @DPTR,A
0718 A3                INC     DPTR
0719 7400        R     MOV     A,#LOW ?SC_11
071B F0                MOVX    @DPTR,A
071C 7B01              MOV     R3,#01H
071E 7A00        R     MOV     R2,#HIGH input_str
0720 7900        R     MOV     R1,#LOW input_str
0722 120000      E     LCALL   _strcat
                                           ; SOURCE LINE # 413
0725 900000      R     MOV     DPTR,#string_lenght
0728 7414              MOV     A,#014H
072A F0                MOVX    @DPTR,A
                                           ; SOURCE LINE # 414
C51 COMPILER V9.51   COMMAND_PROCESSING                                                    02/07/2017 16:12:02 PAGE 56  

072B 020000      R     LJMP    ?C0070
                                           ; SOURCE LINE # 415
072E         ?C0072:
                                           ; SOURCE LINE # 416
072E 900000      E     MOV     DPTR,#?_strcat?BYTE+03H
0731 74FF              MOV     A,#0FFH
0733 F0                MOVX    @DPTR,A
0734 A3                INC     DPTR
0735 7400        R     MOV     A,#HIGH ?SC_17
0737 F0                MOVX    @DPTR,A
0738 A3                INC     DPTR
0739 7400        R     MOV     A,#LOW ?SC_17
073B F0                MOVX    @DPTR,A
073C 7B01              MOV     R3,#01H
073E 7A00        R     MOV     R2,#HIGH input_str
0740 7900        R     MOV     R1,#LOW input_str
0742 120000      E     LCALL   _strcat
                                           ; SOURCE LINE # 417
0745 900000      R     MOV     DPTR,#string_lenght
0748 7417              MOV     A,#017H
074A F0                MOVX    @DPTR,A
                                           ; SOURCE LINE # 418
074B 020000      R     LJMP    ?C0070
                                           ; SOURCE LINE # 419
074E         ?C0073:
                                           ; SOURCE LINE # 420
074E 900000      E     MOV     DPTR,#?_strcat?BYTE+03H
0751 74FF              MOV     A,#0FFH
0753 F0                MOVX    @DPTR,A
0754 A3                INC     DPTR
0755 7400        R     MOV     A,#HIGH ?SC_26
0757 F0                MOVX    @DPTR,A
0758 A3                INC     DPTR
0759 7400        R     MOV     A,#LOW ?SC_26
075B F0                MOVX    @DPTR,A
075C 7B01              MOV     R3,#01H
075E 7A00        R     MOV     R2,#HIGH input_str
0760 7900        R     MOV     R1,#LOW input_str
0762 120000      E     LCALL   _strcat
                                           ; SOURCE LINE # 421
0765 900000      R     MOV     DPTR,#string_lenght
0768 7421              MOV     A,#021H
076A F0                MOVX    @DPTR,A
                                           ; SOURCE LINE # 422
076B 807A              SJMP    ?C0070
                                           ; SOURCE LINE # 423
076D         ?C0074:
                                           ; SOURCE LINE # 424
076D 900000      E     MOV     DPTR,#?_strcat?BYTE+03H
0770 74FF              MOV     A,#0FFH
0772 F0                MOVX    @DPTR,A
0773 A3                INC     DPTR
0774 7400        R     MOV     A,#HIGH ?SC_45
0776 F0                MOVX    @DPTR,A
0777 A3                INC     DPTR
0778 7400        R     MOV     A,#LOW ?SC_45
077A F0                MOVX    @DPTR,A
077B 7B01              MOV     R3,#01H
077D 7A00        R     MOV     R2,#HIGH input_str
077F 7900        R     MOV     R1,#LOW input_str
0781 120000      E     LCALL   _strcat
                                           ; SOURCE LINE # 425
C51 COMPILER V9.51   COMMAND_PROCESSING                                                    02/07/2017 16:12:02 PAGE 57  

0784 900000      R     MOV     DPTR,#string_lenght
0787 741D              MOV     A,#01DH
0789 F0                MOVX    @DPTR,A
                                           ; SOURCE LINE # 426
078A 805B              SJMP    ?C0070
                                           ; SOURCE LINE # 427
078C         ?C0075:
                                           ; SOURCE LINE # 428
078C 900000      E     MOV     DPTR,#?_strcat?BYTE+03H
078F 74FF              MOV     A,#0FFH
0791 F0                MOVX    @DPTR,A
0792 A3                INC     DPTR
0793 7400        R     MOV     A,#HIGH ?SC_60
0795 F0                MOVX    @DPTR,A
0796 A3                INC     DPTR
0797 7400        R     MOV     A,#LOW ?SC_60
0799 F0                MOVX    @DPTR,A
079A 7B01              MOV     R3,#01H
079C 7A00        R     MOV     R2,#HIGH input_str
079E 7900        R     MOV     R1,#LOW input_str
07A0 120000      E     LCALL   _strcat
                                           ; SOURCE LINE # 429
07A3 900000      R     MOV     DPTR,#string_lenght
07A6 7419              MOV     A,#019H
07A8 F0                MOVX    @DPTR,A
                                           ; SOURCE LINE # 430
07A9 803C              SJMP    ?C0070
                                           ; SOURCE LINE # 431
07AB         ?C0076:
                                           ; SOURCE LINE # 432
07AB 900000      E     MOV     DPTR,#?_strcat?BYTE+03H
07AE 74FF              MOV     A,#0FFH
07B0 F0                MOVX    @DPTR,A
07B1 A3                INC     DPTR
07B2 7400        R     MOV     A,#HIGH ?SC_71
07B4 F0                MOVX    @DPTR,A
07B5 A3                INC     DPTR
07B6 7400        R     MOV     A,#LOW ?SC_71
07B8 F0                MOVX    @DPTR,A
07B9 7B01              MOV     R3,#01H
07BB 7A00        R     MOV     R2,#HIGH input_str
07BD 7900        R     MOV     R1,#LOW input_str
07BF 120000      E     LCALL   _strcat
                                           ; SOURCE LINE # 433
07C2 900000      R     MOV     DPTR,#string_lenght
07C5 7422              MOV     A,#022H
07C7 F0                MOVX    @DPTR,A
                                           ; SOURCE LINE # 434
07C8 801D              SJMP    ?C0070
                                           ; SOURCE LINE # 435
07CA         ?C0077:
                                           ; SOURCE LINE # 436
07CA 900000      E     MOV     DPTR,#?_strcat?BYTE+03H
07CD 74FF              MOV     A,#0FFH
07CF F0                MOVX    @DPTR,A
07D0 A3                INC     DPTR
07D1 7400        R     MOV     A,#HIGH ?SC_91
07D3 F0                MOVX    @DPTR,A
07D4 A3                INC     DPTR
07D5 7400        R     MOV     A,#LOW ?SC_91
07D7 F0                MOVX    @DPTR,A
07D8 7B01              MOV     R3,#01H
C51 COMPILER V9.51   COMMAND_PROCESSING                                                    02/07/2017 16:12:02 PAGE 58  

07DA 7A00        R     MOV     R2,#HIGH input_str
07DC 7900        R     MOV     R1,#LOW input_str
07DE 120000      E     LCALL   _strcat
                                           ; SOURCE LINE # 437
07E1 900000      R     MOV     DPTR,#string_lenght
07E4 7419              MOV     A,#019H
07E6 F0                MOVX    @DPTR,A
                                           ; SOURCE LINE # 438
                                           ; SOURCE LINE # 439
07E7         ?C0070:
                                           ; SOURCE LINE # 440
07E7 900000      R     MOV     DPTR,#string_lenght
07EA E0                MOVX    A,@DPTR
07EB 750000      R     MOV     i,#00H
07EE F500        R     MOV     i+01H,A
07F0         ?C0078:
07F0 E500        R     MOV     A,i+01H
07F2 4500        R     ORL     A,i
07F4 602E              JZ      ?C0079
                                           ; SOURCE LINE # 441
07F6 900000      R     MOV     DPTR,#string_lenght
07F9 E0                MOVX    A,@DPTR
07FA C3                CLR     C
07FB 9500        R     SUBB    A,i+01H
07FD FF                MOV     R7,A
07FE E4                CLR     A
07FF 9500        R     SUBB    A,i
0801 FE                MOV     R6,A
0802 7400        R     MOV     A,#LOW input_str
0804 2F                ADD     A,R7
0805 F582              MOV     DPL,A
0807 7400        R     MOV     A,#HIGH input_str
0809 3E                ADDC    A,R6
080A F583              MOV     DPH,A
080C E0                MOVX    A,@DPTR
080D FD                MOV     R5,A
080E 7400        R     MOV     A,#LOW packet_data+0CDH
0810 2F                ADD     A,R7
0811 F582              MOV     DPL,A
0813 7400        R     MOV     A,#HIGH packet_data+0CDH
0815 3E                ADDC    A,R6
0816 F583              MOV     DPH,A
0818 ED                MOV     A,R5
0819 F0                MOVX    @DPTR,A
081A E500        R     MOV     A,i+01H
081C 1500        R     DEC     i+01H
081E 7002              JNZ     ?C0368
0820 1500        R     DEC     i
0822         ?C0368:
0822 80CC              SJMP    ?C0078
0824         ?C0079:
                                           ; SOURCE LINE # 443
0824 900000      R     MOV     DPTR,#string_lenght
0827 E0                MOVX    A,@DPTR
0828 2400        R     ADD     A,#LOW packet_data+0CDH
082A F582              MOV     DPL,A
082C E4                CLR     A
082D 3400        R     ADDC    A,#HIGH packet_data+0CDH
082F F583              MOV     DPH,A
0831 7401              MOV     A,#01H
0833 F0                MOVX    @DPTR,A
                                           ; SOURCE LINE # 447
C51 COMPILER V9.51   COMMAND_PROCESSING                                                    02/07/2017 16:12:02 PAGE 59  

0834 E4                CLR     A
0835 900000      R     MOV     DPTR,#packet_data+0FCH
0838 F0                MOVX    @DPTR,A
                                           ; SOURCE LINE # 448
0839 A3                INC     DPTR
083A 04                INC     A
083B F0                MOVX    @DPTR,A
                                           ; SOURCE LINE # 449
083C 900000      E     MOV     DPTR,#c_mem+036H
083F E0                MOVX    A,@DPTR
0840 900000      R     MOV     DPTR,#packet_data+0FEH
0843 F0                MOVX    @DPTR,A
                                           ; SOURCE LINE # 450
0844 900000      E     MOV     DPTR,#c_mem+036H
0847 14                DEC     A
0848 6029              JZ      ?C0083
084A 14                DEC     A
084B 6045              JZ      ?C0084
084D 14                DEC     A
084E 6061              JZ      ?C0085
0850 2403              ADD     A,#03H
0852 707A              JNZ     ?C0081
                                           ; SOURCE LINE # 451
0854         ?C0082:
                                           ; SOURCE LINE # 452
0854 900000      E     MOV     DPTR,#?_strcat?BYTE+03H
0857 74FF              MOV     A,#0FFH
0859 F0                MOVX    @DPTR,A
085A A3                INC     DPTR
085B 7400        R     MOV     A,#HIGH ?SC_102
085D F0                MOVX    @DPTR,A
085E A3                INC     DPTR
085F 7400        R     MOV     A,#LOW ?SC_102
0861 F0                MOVX    @DPTR,A
0862 7B01              MOV     R3,#01H
0864 7A00        R     MOV     R2,#HIGH contr_str
0866 7900        R     MOV     R1,#LOW contr_str
0868 120000      E     LCALL   _strcat
                                           ; SOURCE LINE # 453
086B 900000      R     MOV     DPTR,#string_lenght
086E 741B              MOV     A,#01BH
0870 F0                MOVX    @DPTR,A
                                           ; SOURCE LINE # 454
0871 805B              SJMP    ?C0081
                                           ; SOURCE LINE # 455
0873         ?C0083:
                                           ; SOURCE LINE # 456
0873 900000      E     MOV     DPTR,#?_strcat?BYTE+03H
0876 74FF              MOV     A,#0FFH
0878 F0                MOVX    @DPTR,A
0879 A3                INC     DPTR
087A 7400        R     MOV     A,#HIGH ?SC_113
087C F0                MOVX    @DPTR,A
087D A3                INC     DPTR
087E 7400        R     MOV     A,#LOW ?SC_113
0880 F0                MOVX    @DPTR,A
0881 7B01              MOV     R3,#01H
0883 7A00        R     MOV     R2,#HIGH contr_str
0885 7900        R     MOV     R1,#LOW contr_str
0887 120000      E     LCALL   _strcat
                                           ; SOURCE LINE # 457
088A 900000      R     MOV     DPTR,#string_lenght
C51 COMPILER V9.51   COMMAND_PROCESSING                                                    02/07/2017 16:12:02 PAGE 60  

088D 7416              MOV     A,#016H
088F F0                MOVX    @DPTR,A
                                           ; SOURCE LINE # 458
0890 803C              SJMP    ?C0081
                                           ; SOURCE LINE # 459
0892         ?C0084:
                                           ; SOURCE LINE # 460
0892 900000      E     MOV     DPTR,#?_strcat?BYTE+03H
0895 74FF              MOV     A,#0FFH
0897 F0                MOVX    @DPTR,A
0898 A3                INC     DPTR
0899 7400        R     MOV     A,#HIGH ?SC_119
089B F0                MOVX    @DPTR,A
089C A3                INC     DPTR
089D 7400        R     MOV     A,#LOW ?SC_119
089F F0                MOVX    @DPTR,A
08A0 7B01              MOV     R3,#01H
08A2 7A00        R     MOV     R2,#HIGH contr_str
08A4 7900        R     MOV     R1,#LOW contr_str
08A6 120000      E     LCALL   _strcat
                                           ; SOURCE LINE # 461
08A9 900000      R     MOV     DPTR,#string_lenght
08AC 741A              MOV     A,#01AH
08AE F0                MOVX    @DPTR,A
                                           ; SOURCE LINE # 462
08AF 801D              SJMP    ?C0081
                                           ; SOURCE LINE # 463
08B1         ?C0085:
                                           ; SOURCE LINE # 464
08B1 900000      E     MOV     DPTR,#?_strcat?BYTE+03H
08B4 74FF              MOV     A,#0FFH
08B6 F0                MOVX    @DPTR,A
08B7 A3                INC     DPTR
08B8 7400        R     MOV     A,#HIGH ?SC_129
08BA F0                MOVX    @DPTR,A
08BB A3                INC     DPTR
08BC 7400        R     MOV     A,#LOW ?SC_129
08BE F0                MOVX    @DPTR,A
08BF 7B01              MOV     R3,#01H
08C1 7A00        R     MOV     R2,#HIGH contr_str
08C3 7900        R     MOV     R1,#LOW contr_str
08C5 120000      E     LCALL   _strcat
                                           ; SOURCE LINE # 465
08C8 900000      R     MOV     DPTR,#string_lenght
08CB 7427              MOV     A,#027H
08CD F0                MOVX    @DPTR,A
                                           ; SOURCE LINE # 466
                                           ; SOURCE LINE # 467
08CE         ?C0081:
                                           ; SOURCE LINE # 468
08CE 900000      R     MOV     DPTR,#string_lenght
08D1 E0                MOVX    A,@DPTR
08D2 750000      R     MOV     i,#00H
08D5 F500        R     MOV     i+01H,A
08D7         ?C0086:
08D7 E500        R     MOV     A,i+01H
08D9 4500        R     ORL     A,i
08DB 602E              JZ      ?C0087
                                           ; SOURCE LINE # 469
08DD 900000      R     MOV     DPTR,#string_lenght
08E0 E0                MOVX    A,@DPTR
08E1 C3                CLR     C
C51 COMPILER V9.51   COMMAND_PROCESSING                                                    02/07/2017 16:12:02 PAGE 61  

08E2 9500        R     SUBB    A,i+01H
08E4 FF                MOV     R7,A
08E5 E4                CLR     A
08E6 9500        R     SUBB    A,i
08E8 FE                MOV     R6,A
08E9 7400        R     MOV     A,#LOW contr_str
08EB 2F                ADD     A,R7
08EC F582              MOV     DPL,A
08EE 7400        R     MOV     A,#HIGH contr_str
08F0 3E                ADDC    A,R6
08F1 F583              MOV     DPH,A
08F3 E0                MOVX    A,@DPTR
08F4 FD                MOV     R5,A
08F5 7400        R     MOV     A,#LOW packet_data+0FFH
08F7 2F                ADD     A,R7
08F8 F582              MOV     DPL,A
08FA 7400        R     MOV     A,#HIGH packet_data+0FFH
08FC 3E                ADDC    A,R6
08FD F583              MOV     DPH,A
08FF ED                MOV     A,R5
0900 F0                MOVX    @DPTR,A
0901 E500        R     MOV     A,i+01H
0903 1500        R     DEC     i+01H
0905 7002              JNZ     ?C0369
0907 1500        R     DEC     i
0909         ?C0369:
0909 80CC              SJMP    ?C0086
090B         ?C0087:
                                           ; SOURCE LINE # 471
090B 900000      R     MOV     DPTR,#string_lenght
090E E0                MOVX    A,@DPTR
090F 2400        R     ADD     A,#LOW packet_data+0FFH
0911 F582              MOV     DPL,A
0913 E4                CLR     A
0914 3400        R     ADDC    A,#HIGH packet_data+0FFH
0916 F583              MOV     DPH,A
0918 7402              MOV     A,#02H
091A F0                MOVX    @DPTR,A
                                           ; SOURCE LINE # 475
091B 900000      R     MOV     DPTR,#packet_data+012EH
091E F0                MOVX    @DPTR,A
                                           ; SOURCE LINE # 476
091F A3                INC     DPTR
0920 7404              MOV     A,#04H
0922 F0                MOVX    @DPTR,A
                                           ; SOURCE LINE # 477
0923 E4                CLR     A
0924 F500        R     MOV     i,A
0926 F500        R     MOV     i+01H,A
0928         ?C0089:
0928 C3                CLR     C
0929 E500        R     MOV     A,i+01H
092B 9404              SUBB    A,#04H
092D E500        R     MOV     A,i
092F 9400              SUBB    A,#00H
0931 5026              JNC     ?C0090
                                           ; SOURCE LINE # 478
0933 7400        E     MOV     A,#LOW c_mem+037H
0935 2500        R     ADD     A,i+01H
0937 F582              MOV     DPL,A
0939 7400        E     MOV     A,#HIGH c_mem+037H
093B 3500        R     ADDC    A,i
C51 COMPILER V9.51   COMMAND_PROCESSING                                                    02/07/2017 16:12:02 PAGE 62  

093D F583              MOV     DPH,A
093F E0                MOVX    A,@DPTR
0940 FF                MOV     R7,A
0941 7400        R     MOV     A,#LOW packet_data+0130H
0943 2500        R     ADD     A,i+01H
0945 F582              MOV     DPL,A
0947 7400        R     MOV     A,#HIGH packet_data+0130H
0949 3500        R     ADDC    A,i
094B F583              MOV     DPH,A
094D EF                MOV     A,R7
094E F0                MOVX    @DPTR,A
094F 0500        R     INC     i+01H
0951 E500        R     MOV     A,i+01H
0953 7002              JNZ     ?C0370
0955 0500        R     INC     i
0957         ?C0370:
0957 80CF              SJMP    ?C0089
0959         ?C0090:
                                           ; SOURCE LINE # 479
0959 900000      R     MOV     DPTR,#res_str_len
095C E0                MOVX    A,@DPTR
095D 750000      R     MOV     i,#00H
0960 F500        R     MOV     i+01H,A
0962         ?C0092:
0962 E500        R     MOV     A,i+01H
0964 4500        R     ORL     A,i
0966 602E              JZ      ?C0093
                                           ; SOURCE LINE # 480
0968 900000      R     MOV     DPTR,#res_str_len
096B E0                MOVX    A,@DPTR
096C C3                CLR     C
096D 9500        R     SUBB    A,i+01H
096F FF                MOV     R7,A
0970 E4                CLR     A
0971 9500        R     SUBB    A,i
0973 FE                MOV     R6,A
0974 7400        R     MOV     A,#LOW res_str
0976 2F                ADD     A,R7
0977 F582              MOV     DPL,A
0979 7400        R     MOV     A,#HIGH res_str
097B 3E                ADDC    A,R6
097C F583              MOV     DPH,A
097E E0                MOVX    A,@DPTR
097F FD                MOV     R5,A
0980 7400        R     MOV     A,#LOW packet_data+0134H
0982 2F                ADD     A,R7
0983 F582              MOV     DPL,A
0985 7400        R     MOV     A,#HIGH packet_data+0134H
0987 3E                ADDC    A,R6
0988 F583              MOV     DPH,A
098A ED                MOV     A,R5
098B F0                MOVX    @DPTR,A
098C E500        R     MOV     A,i+01H
098E 1500        R     DEC     i+01H
0990 7002              JNZ     ?C0371
0992 1500        R     DEC     i
0994         ?C0371:
0994 80CC              SJMP    ?C0092
0996         ?C0093:
                                           ; SOURCE LINE # 484
0996 900000      R     MOV     DPTR,#packet_data+0160H
0999 7403              MOV     A,#03H
C51 COMPILER V9.51   COMMAND_PROCESSING                                                    02/07/2017 16:12:02 PAGE 63  

099B F0                MOVX    @DPTR,A
                                           ; SOURCE LINE # 485
099C A3                INC     DPTR
099D 04                INC     A
099E F0                MOVX    @DPTR,A
                                           ; SOURCE LINE # 486
099F E4                CLR     A
09A0 F500        R     MOV     i,A
09A2 F500        R     MOV     i+01H,A
09A4         ?C0095:
09A4 C3                CLR     C
09A5 E500        R     MOV     A,i+01H
09A7 9404              SUBB    A,#04H
09A9 E500        R     MOV     A,i
09AB 9400              SUBB    A,#00H
09AD 5059              JNC     ?C0096
                                           ; SOURCE LINE # 487
09AF E500        R     MOV     A,i+01H
09B1 AE00        R     MOV     R6,i
09B3 7802              MOV     R0,#02H
09B5         ?C0372:
09B5 C3                CLR     C
09B6 33                RLC     A
09B7 CE                XCH     A,R6
09B8 33                RLC     A
09B9 CE                XCH     A,R6
09BA D8F9              DJNZ    R0,?C0372
09BC 2400        E     ADD     A,#LOW c_mem+03BH
09BE F582              MOV     DPL,A
09C0 7400        E     MOV     A,#HIGH c_mem+03BH
09C2 3E                ADDC    A,R6
09C3 F583              MOV     DPH,A
09C5 E0                MOVX    A,@DPTR
09C6 FC                MOV     R4,A
09C7 A3                INC     DPTR
09C8 E0                MOVX    A,@DPTR
09C9 FD                MOV     R5,A
09CA A3                INC     DPTR
09CB E0                MOVX    A,@DPTR
09CC FE                MOV     R6,A
09CD A3                INC     DPTR
09CE E0                MOVX    A,@DPTR
09CF FF                MOV     R7,A
09D0 7400        E     MOV     A,#LOW c_mem+037H
09D2 2500        R     ADD     A,i+01H
09D4 F582              MOV     DPL,A
09D6 7400        E     MOV     A,#HIGH c_mem+037H
09D8 3500        R     ADDC    A,i
09DA F583              MOV     DPH,A
09DC E0                MOVX    A,@DPTR
09DD F9                MOV     R1,A
09DE F8                MOV     R0,A
09DF 120000      E     LCALL   ?C?SLSHR
09E2 AD07              MOV     R5,AR7
09E4 AC06              MOV     R4,AR6
09E6 E500        R     MOV     A,i+01H
09E8 25E0              ADD     A,ACC
09EA FF                MOV     R7,A
09EB E500        R     MOV     A,i
09ED 33                RLC     A
09EE FE                MOV     R6,A
09EF 7400        R     MOV     A,#LOW packet_data+0162H
C51 COMPILER V9.51   COMMAND_PROCESSING                                                    02/07/2017 16:12:02 PAGE 64  

09F1 2F                ADD     A,R7
09F2 F582              MOV     DPL,A
09F4 7400        R     MOV     A,#HIGH packet_data+0162H
09F6 3E                ADDC    A,R6
09F7 F583              MOV     DPH,A
09F9 EC                MOV     A,R4
09FA F0                MOVX    @DPTR,A
09FB A3                INC     DPTR
09FC ED                MOV     A,R5
09FD F0                MOVX    @DPTR,A
09FE 0500        R     INC     i+01H
0A00 E500        R     MOV     A,i+01H
0A02 7002              JNZ     ?C0373
0A04 0500        R     INC     i
0A06         ?C0373:
0A06 809C              SJMP    ?C0095
0A08         ?C0096:
                                           ; SOURCE LINE # 488
0A08 900000      R     MOV     DPTR,#m_off_str_len
0A0B E0                MOVX    A,@DPTR
0A0C 750000      R     MOV     i,#00H
0A0F F500        R     MOV     i+01H,A
0A11         ?C0098:
0A11 E500        R     MOV     A,i+01H
0A13 4500        R     ORL     A,i
0A15 602E              JZ      ?C0099
                                           ; SOURCE LINE # 489
0A17 900000      R     MOV     DPTR,#m_off_str_len
0A1A E0                MOVX    A,@DPTR
0A1B C3                CLR     C
0A1C 9500        R     SUBB    A,i+01H
0A1E FF                MOV     R7,A
0A1F E4                CLR     A
0A20 9500        R     SUBB    A,i
0A22 FE                MOV     R6,A
0A23 7400        R     MOV     A,#LOW m_off_str
0A25 2F                ADD     A,R7
0A26 F582              MOV     DPL,A
0A28 7400        R     MOV     A,#HIGH m_off_str
0A2A 3E                ADDC    A,R6
0A2B F583              MOV     DPH,A
0A2D E0                MOVX    A,@DPTR
0A2E FD                MOV     R5,A
0A2F 7400        R     MOV     A,#LOW packet_data+016AH
0A31 2F                ADD     A,R7
0A32 F582              MOV     DPL,A
0A34 7400        R     MOV     A,#HIGH packet_data+016AH
0A36 3E                ADDC    A,R6
0A37 F583              MOV     DPH,A
0A39 ED                MOV     A,R5
0A3A F0                MOVX    @DPTR,A
0A3B E500        R     MOV     A,i+01H
0A3D 1500        R     DEC     i+01H
0A3F 7002              JNZ     ?C0374
0A41 1500        R     DEC     i
0A43         ?C0374:
0A43 80CC              SJMP    ?C0098
0A45         ?C0099:
                                           ; SOURCE LINE # 493
0A45 900000      R     MOV     DPTR,#packet_data+0192H
0A48 7407              MOV     A,#07H
0A4A F0                MOVX    @DPTR,A
C51 COMPILER V9.51   COMMAND_PROCESSING                                                    02/07/2017 16:12:02 PAGE 65  

                                           ; SOURCE LINE # 494
0A4B A3                INC     DPTR
0A4C 7404              MOV     A,#04H
0A4E F0                MOVX    @DPTR,A
                                           ; SOURCE LINE # 495
0A4F E4                CLR     A
0A50 F500        R     MOV     i,A
0A52 F500        R     MOV     i+01H,A
0A54         ?C0101:
0A54 C3                CLR     C
0A55 E500        R     MOV     A,i+01H
0A57 9404              SUBB    A,#04H
0A59 E500        R     MOV     A,i
0A5B 9400              SUBB    A,#00H
0A5D 5054              JNC     ?C0102
                                           ; SOURCE LINE # 496
0A5F E500        R     MOV     A,i+01H
0A61 AE00        R     MOV     R6,i
0A63 7802              MOV     R0,#02H
0A65         ?C0375:
0A65 C3                CLR     C
0A66 33                RLC     A
0A67 CE                XCH     A,R6
0A68 33                RLC     A
0A69 CE                XCH     A,R6
0A6A D8F9              DJNZ    R0,?C0375
0A6C 2400        E     ADD     A,#LOW c_mem+04BH
0A6E F582              MOV     DPL,A
0A70 7400        E     MOV     A,#HIGH c_mem+04BH
0A72 3E                ADDC    A,R6
0A73 F583              MOV     DPH,A
0A75 E0                MOVX    A,@DPTR
0A76 FC                MOV     R4,A
0A77 A3                INC     DPTR
0A78 E0                MOVX    A,@DPTR
0A79 FD                MOV     R5,A
0A7A A3                INC     DPTR
0A7B E0                MOVX    A,@DPTR
0A7C FE                MOV     R6,A
0A7D A3                INC     DPTR
0A7E E0                MOVX    A,@DPTR
0A7F FF                MOV     R7,A
0A80 C004              PUSH    AR4
0A82 C005              PUSH    AR5
0A84 C006              PUSH    AR6
0A86 C007              PUSH    AR7
0A88 E500        R     MOV     A,i+01H
0A8A AE00        R     MOV     R6,i
0A8C 7802              MOV     R0,#02H
0A8E         ?C0376:
0A8E C3                CLR     C
0A8F 33                RLC     A
0A90 CE                XCH     A,R6
0A91 33                RLC     A
0A92 CE                XCH     A,R6
0A93 D8F9              DJNZ    R0,?C0376
0A95 2400        R     ADD     A,#LOW packet_data+0194H
0A97 F582              MOV     DPL,A
0A99 7400        R     MOV     A,#HIGH packet_data+0194H
0A9B 3E                ADDC    A,R6
0A9C F583              MOV     DPH,A
0A9E D007              POP     AR7
C51 COMPILER V9.51   COMMAND_PROCESSING                                                    02/07/2017 16:12:02 PAGE 66  

0AA0 D006              POP     AR6
0AA2 D005              POP     AR5
0AA4 D004              POP     AR4
0AA6 120000      E     LCALL   ?C?LSTXDATA
0AA9 0500        R     INC     i+01H
0AAB E500        R     MOV     A,i+01H
0AAD 7002              JNZ     ?C0377
0AAF 0500        R     INC     i
0AB1         ?C0377:
0AB1 80A1              SJMP    ?C0101
0AB3         ?C0102:
                                           ; SOURCE LINE # 497
0AB3 900000      R     MOV     DPTR,#mult_str_len
0AB6 E0                MOVX    A,@DPTR
0AB7 750000      R     MOV     i,#00H
0ABA F500        R     MOV     i+01H,A
0ABC         ?C0104:
0ABC E500        R     MOV     A,i+01H
0ABE 4500        R     ORL     A,i
0AC0 602E              JZ      ?C0105
                                           ; SOURCE LINE # 498
0AC2 900000      R     MOV     DPTR,#mult_str_len
0AC5 E0                MOVX    A,@DPTR
0AC6 C3                CLR     C
0AC7 9500        R     SUBB    A,i+01H
0AC9 FF                MOV     R7,A
0ACA E4                CLR     A
0ACB 9500        R     SUBB    A,i
0ACD FE                MOV     R6,A
0ACE 7400        R     MOV     A,#LOW mult_str
0AD0 2F                ADD     A,R7
0AD1 F582              MOV     DPL,A
0AD3 7400        R     MOV     A,#HIGH mult_str
0AD5 3E                ADDC    A,R6
0AD6 F583              MOV     DPH,A
0AD8 E0                MOVX    A,@DPTR
0AD9 FD                MOV     R5,A
0ADA 7400        R     MOV     A,#LOW packet_data+01A4H
0ADC 2F                ADD     A,R7
0ADD F582              MOV     DPL,A
0ADF 7400        R     MOV     A,#HIGH packet_data+01A4H
0AE1 3E                ADDC    A,R6
0AE2 F583              MOV     DPH,A
0AE4 ED                MOV     A,R5
0AE5 F0                MOVX    @DPTR,A
0AE6 E500        R     MOV     A,i+01H
0AE8 1500        R     DEC     i+01H
0AEA 7002              JNZ     ?C0378
0AEC 1500        R     DEC     i
0AEE         ?C0378:
0AEE 80CC              SJMP    ?C0104
0AF0         ?C0105:
                                           ; SOURCE LINE # 502
0AF0 E4                CLR     A
0AF1 900000      R     MOV     DPTR,#packet_data+01C4H
0AF4 F0                MOVX    @DPTR,A
                                           ; SOURCE LINE # 503
0AF5 A3                INC     DPTR
0AF6 04                INC     A
0AF7 F0                MOVX    @DPTR,A
                                           ; SOURCE LINE # 504
0AF8 900000      E     MOV     DPTR,#c_mem+05BH
C51 COMPILER V9.51   COMMAND_PROCESSING                                                    02/07/2017 16:12:02 PAGE 67  

0AFB E0                MOVX    A,@DPTR
0AFC 900000      R     MOV     DPTR,#packet_data+01C6H
0AFF F0                MOVX    @DPTR,A
                                           ; SOURCE LINE # 505
0B00 900000      E     MOV     DPTR,#c_mem+05BH
0B03 601F              JZ      ?C0107
                                           ; SOURCE LINE # 506
0B05 900000      E     MOV     DPTR,#?_strcat?BYTE+03H
0B08 74FF              MOV     A,#0FFH
0B0A F0                MOVX    @DPTR,A
0B0B A3                INC     DPTR
0B0C 7400        R     MOV     A,#HIGH ?SC_0
0B0E F0                MOVX    @DPTR,A
0B0F A3                INC     DPTR
0B10 7400        R     MOV     A,#LOW ?SC_0
0B12 F0                MOVX    @DPTR,A
0B13 7B01              MOV     R3,#01H
0B15 7A00        R     MOV     R2,#HIGH pos_lim_flag_str
0B17 7900        R     MOV     R1,#LOW pos_lim_flag_str
0B19 120000      E     LCALL   _strcat
                                           ; SOURCE LINE # 507
0B1C 900000      R     MOV     DPTR,#string_lenght
0B1F 741C              MOV     A,#01CH
0B21 F0                MOVX    @DPTR,A
                                           ; SOURCE LINE # 508
0B22 801D              SJMP    ?C0108
0B24         ?C0107:
                                           ; SOURCE LINE # 509
                                           ; SOURCE LINE # 510
0B24 900000      E     MOV     DPTR,#?_strcat?BYTE+03H
0B27 74FF              MOV     A,#0FFH
0B29 F0                MOVX    @DPTR,A
0B2A A3                INC     DPTR
0B2B 7400        R     MOV     A,#HIGH ?SC_6
0B2D F0                MOVX    @DPTR,A
0B2E A3                INC     DPTR
0B2F 7400        R     MOV     A,#LOW ?SC_6
0B31 F0                MOVX    @DPTR,A
0B32 7B01              MOV     R3,#01H
0B34 7A00        R     MOV     R2,#HIGH pos_lim_flag_str
0B36 7900        R     MOV     R1,#LOW pos_lim_flag_str
0B38 120000      E     LCALL   _strcat
                                           ; SOURCE LINE # 511
0B3B 900000      R     MOV     DPTR,#string_lenght
0B3E 741B              MOV     A,#01BH
0B40 F0                MOVX    @DPTR,A
                                           ; SOURCE LINE # 512
0B41         ?C0108:
                                           ; SOURCE LINE # 513
0B41 900000      R     MOV     DPTR,#string_lenght
0B44 E0                MOVX    A,@DPTR
0B45 750000      R     MOV     i,#00H
0B48 F500        R     MOV     i+01H,A
0B4A         ?C0109:
0B4A E500        R     MOV     A,i+01H
0B4C 4500        R     ORL     A,i
0B4E 602E              JZ      ?C0110
                                           ; SOURCE LINE # 514
0B50 900000      R     MOV     DPTR,#string_lenght
0B53 E0                MOVX    A,@DPTR
0B54 C3                CLR     C
0B55 9500        R     SUBB    A,i+01H
C51 COMPILER V9.51   COMMAND_PROCESSING                                                    02/07/2017 16:12:02 PAGE 68  

0B57 FF                MOV     R7,A
0B58 E4                CLR     A
0B59 9500        R     SUBB    A,i
0B5B FE                MOV     R6,A
0B5C 7400        R     MOV     A,#LOW pos_lim_flag_str
0B5E 2F                ADD     A,R7
0B5F F582              MOV     DPL,A
0B61 7400        R     MOV     A,#HIGH pos_lim_flag_str
0B63 3E                ADDC    A,R6
0B64 F583              MOV     DPH,A
0B66 E0                MOVX    A,@DPTR
0B67 FD                MOV     R5,A
0B68 7400        R     MOV     A,#LOW packet_data+01C7H
0B6A 2F                ADD     A,R7
0B6B F582              MOV     DPL,A
0B6D 7400        R     MOV     A,#HIGH packet_data+01C7H
0B6F 3E                ADDC    A,R6
0B70 F583              MOV     DPH,A
0B72 ED                MOV     A,R5
0B73 F0                MOVX    @DPTR,A
0B74 E500        R     MOV     A,i+01H
0B76 1500        R     DEC     i+01H
0B78 7002              JNZ     ?C0379
0B7A 1500        R     DEC     i
0B7C         ?C0379:
0B7C 80CC              SJMP    ?C0109
0B7E         ?C0110:
                                           ; SOURCE LINE # 516
0B7E 900000      R     MOV     DPTR,#string_lenght
0B81 E0                MOVX    A,@DPTR
0B82 2400        R     ADD     A,#LOW packet_data+01C7H
0B84 F582              MOV     DPL,A
0B86 E4                CLR     A
0B87 3400        R     ADDC    A,#HIGH packet_data+01C7H
0B89 F583              MOV     DPH,A
0B8B 7403              MOV     A,#03H
0B8D F0                MOVX    @DPTR,A
                                           ; SOURCE LINE # 520
0B8E 900000      R     MOV     DPTR,#packet_data+01F6H
0B91 7405              MOV     A,#05H
0B93 F0                MOVX    @DPTR,A
                                           ; SOURCE LINE # 521
0B94 A3                INC     DPTR
0B95 14                DEC     A
0B96 F0                MOVX    @DPTR,A
                                           ; SOURCE LINE # 522
0B97 E4                CLR     A
0B98 F500        R     MOV     i,A
0B9A F500        R     MOV     i+01H,A
0B9C         ?C0112:
0B9C C3                CLR     C
0B9D E500        R     MOV     A,i+01H
0B9F 9403              SUBB    A,#03H
0BA1 E500        R     MOV     A,i
0BA3 9400              SUBB    A,#00H
0BA5 4003              JC      $ + 5H
0BA7 020000      R     LJMP    ?C0113
                                           ; SOURCE LINE # 523
0BAA E500        R     MOV     A,i+01H
0BAC AE00        R     MOV     R6,i
0BAE 7802              MOV     R0,#02H
0BB0         ?C0380:
C51 COMPILER V9.51   COMMAND_PROCESSING                                                    02/07/2017 16:12:02 PAGE 69  

0BB0 C3                CLR     C
0BB1 33                RLC     A
0BB2 CE                XCH     A,R6
0BB3 33                RLC     A
0BB4 CE                XCH     A,R6
0BB5 D8F9              DJNZ    R0,?C0380
0BB7 2400        E     ADD     A,#LOW c_mem+05CH
0BB9 F582              MOV     DPL,A
0BBB 7400        E     MOV     A,#HIGH c_mem+05CH
0BBD 3E                ADDC    A,R6
0BBE F583              MOV     DPH,A
0BC0 E0                MOVX    A,@DPTR
0BC1 FC                MOV     R4,A
0BC2 A3                INC     DPTR
0BC3 E0                MOVX    A,@DPTR
0BC4 FD                MOV     R5,A
0BC5 A3                INC     DPTR
0BC6 E0                MOVX    A,@DPTR
0BC7 FE                MOV     R6,A
0BC8 A3                INC     DPTR
0BC9 E0                MOVX    A,@DPTR
0BCA FF                MOV     R7,A
0BCB 7400        E     MOV     A,#LOW c_mem+037H
0BCD 2500        R     ADD     A,i+01H
0BCF F582              MOV     DPL,A
0BD1 7400        E     MOV     A,#HIGH c_mem+037H
0BD3 3500        R     ADDC    A,i
0BD5 F583              MOV     DPH,A
0BD7 E0                MOVX    A,@DPTR
0BD8 F9                MOV     R1,A
0BD9 F8                MOV     R0,A
0BDA 120000      E     LCALL   ?C?SLSHR
0BDD C004              PUSH    AR4
0BDF C005              PUSH    AR5
0BE1 C006              PUSH    AR6
0BE3 C007              PUSH    AR7
0BE5 E500        R     MOV     A,i+01H
0BE7 AE00        R     MOV     R6,i
0BE9 7803              MOV     R0,#03H
0BEB         ?C0381:
0BEB C3                CLR     C
0BEC 33                RLC     A
0BED CE                XCH     A,R6
0BEE 33                RLC     A
0BEF CE                XCH     A,R6
0BF0 D8F9              DJNZ    R0,?C0381
0BF2 2400        R     ADD     A,#LOW packet_data+01F8H
0BF4 F582              MOV     DPL,A
0BF6 7400        R     MOV     A,#HIGH packet_data+01F8H
0BF8 3E                ADDC    A,R6
0BF9 F583              MOV     DPH,A
0BFB D007              POP     AR7
0BFD D006              POP     AR6
0BFF D005              POP     AR5
0C01 D004              POP     AR4
0C03 120000      E     LCALL   ?C?LSTXDATA
                                           ; SOURCE LINE # 524
0C06 E500        R     MOV     A,i+01H
0C08 AE00        R     MOV     R6,i
0C0A 7802              MOV     R0,#02H
0C0C         ?C0382:
0C0C C3                CLR     C
C51 COMPILER V9.51   COMMAND_PROCESSING                                                    02/07/2017 16:12:02 PAGE 70  

0C0D 33                RLC     A
0C0E CE                XCH     A,R6
0C0F 33                RLC     A
0C10 CE                XCH     A,R6
0C11 D8F9              DJNZ    R0,?C0382
0C13 2400        E     ADD     A,#LOW c_mem+064H
0C15 F582              MOV     DPL,A
0C17 7400        E     MOV     A,#HIGH c_mem+064H
0C19 3E                ADDC    A,R6
0C1A F583              MOV     DPH,A
0C1C E0                MOVX    A,@DPTR
0C1D FC                MOV     R4,A
0C1E A3                INC     DPTR
0C1F E0                MOVX    A,@DPTR
0C20 FD                MOV     R5,A
0C21 A3                INC     DPTR
0C22 E0                MOVX    A,@DPTR
0C23 FE                MOV     R6,A
0C24 A3                INC     DPTR
0C25 E0                MOVX    A,@DPTR
0C26 FF                MOV     R7,A
0C27 7400        E     MOV     A,#LOW c_mem+037H
0C29 2500        R     ADD     A,i+01H
0C2B F582              MOV     DPL,A
0C2D 7400        E     MOV     A,#HIGH c_mem+037H
0C2F 3500        R     ADDC    A,i
0C31 F583              MOV     DPH,A
0C33 E0                MOVX    A,@DPTR
0C34 F9                MOV     R1,A
0C35 F8                MOV     R0,A
0C36 120000      E     LCALL   ?C?SLSHR
0C39 C004              PUSH    AR4
0C3B C005              PUSH    AR5
0C3D C006              PUSH    AR6
0C3F C007              PUSH    AR7
0C41 E500        R     MOV     A,i+01H
0C43 AE00        R     MOV     R6,i
0C45 7803              MOV     R0,#03H
0C47         ?C0383:
0C47 C3                CLR     C
0C48 33                RLC     A
0C49 CE                XCH     A,R6
0C4A 33                RLC     A
0C4B CE                XCH     A,R6
0C4C D8F9              DJNZ    R0,?C0383
0C4E 2400        R     ADD     A,#LOW packet_data+01FCH
0C50 F582              MOV     DPL,A
0C52 7400        R     MOV     A,#HIGH packet_data+01FCH
0C54 3E                ADDC    A,R6
0C55 F583              MOV     DPH,A
0C57 D007              POP     AR7
0C59 D006              POP     AR6
0C5B D005              POP     AR5
0C5D D004              POP     AR4
0C5F 120000      E     LCALL   ?C?LSTXDATA
                                           ; SOURCE LINE # 525
0C62 0500        R     INC     i+01H
0C64 E500        R     MOV     A,i+01H
0C66 7002              JNZ     ?C0384
0C68 0500        R     INC     i
0C6A         ?C0384:
0C6A 020000      R     LJMP    ?C0112
C51 COMPILER V9.51   COMMAND_PROCESSING                                                    02/07/2017 16:12:02 PAGE 71  

0C6D         ?C0113:
                                           ; SOURCE LINE # 526
0C6D 900000      R     MOV     DPTR,#pos_lim_str_len
0C70 E0                MOVX    A,@DPTR
0C71 750000      R     MOV     i,#00H
0C74 F500        R     MOV     i+01H,A
0C76         ?C0115:
0C76 E500        R     MOV     A,i+01H
0C78 4500        R     ORL     A,i
0C7A 602E              JZ      ?C0116
                                           ; SOURCE LINE # 527
0C7C 900000      R     MOV     DPTR,#pos_lim_str_len
0C7F E0                MOVX    A,@DPTR
0C80 C3                CLR     C
0C81 9500        R     SUBB    A,i+01H
0C83 FF                MOV     R7,A
0C84 E4                CLR     A
0C85 9500        R     SUBB    A,i
0C87 FE                MOV     R6,A
0C88 7400        R     MOV     A,#LOW pos_lim_str
0C8A 2F                ADD     A,R7
0C8B F582              MOV     DPL,A
0C8D 7400        R     MOV     A,#HIGH pos_lim_str
0C8F 3E                ADDC    A,R6
0C90 F583              MOV     DPH,A
0C92 E0                MOVX    A,@DPTR
0C93 FD                MOV     R5,A
0C94 7400        R     MOV     A,#LOW packet_data+0208H
0C96 2F                ADD     A,R7
0C97 F582              MOV     DPL,A
0C99 7400        R     MOV     A,#HIGH packet_data+0208H
0C9B 3E                ADDC    A,R6
0C9C F583              MOV     DPH,A
0C9E ED                MOV     A,R5
0C9F F0                MOVX    @DPTR,A
0CA0 E500        R     MOV     A,i+01H
0CA2 1500        R     DEC     i+01H
0CA4 7002              JNZ     ?C0385
0CA6 1500        R     DEC     i
0CA8         ?C0385:
0CA8 80CC              SJMP    ?C0115
0CAA         ?C0116:
                                           ; SOURCE LINE # 531
0CAA 900000      R     MOV     DPTR,#packet_data+0228H
0CAD 7405              MOV     A,#05H
0CAF F0                MOVX    @DPTR,A
                                           ; SOURCE LINE # 532
0CB0 A3                INC     DPTR
0CB1 7402              MOV     A,#02H
0CB3 F0                MOVX    @DPTR,A
                                           ; SOURCE LINE # 533
0CB4 900000      E     MOV     DPTR,#c_mem+06EH
0CB7 E0                MOVX    A,@DPTR
0CB8 FC                MOV     R4,A
0CB9 A3                INC     DPTR
0CBA E0                MOVX    A,@DPTR
0CBB FD                MOV     R5,A
0CBC A3                INC     DPTR
0CBD E0                MOVX    A,@DPTR
0CBE FE                MOV     R6,A
0CBF A3                INC     DPTR
0CC0 E0                MOVX    A,@DPTR
C51 COMPILER V9.51   COMMAND_PROCESSING                                                    02/07/2017 16:12:02 PAGE 72  

0CC1 FF                MOV     R7,A
0CC2 900000      R     MOV     DPTR,#packet_data+022AH
0CC5 120000      E     LCALL   ?C?LSTXDATA
                                           ; SOURCE LINE # 534
0CC8 900000      E     MOV     DPTR,#c_mem+072H
0CCB E0                MOVX    A,@DPTR
0CCC FC                MOV     R4,A
0CCD A3                INC     DPTR
0CCE E0                MOVX    A,@DPTR
0CCF FD                MOV     R5,A
0CD0 A3                INC     DPTR
0CD1 E0                MOVX    A,@DPTR
0CD2 FE                MOV     R6,A
0CD3 A3                INC     DPTR
0CD4 E0                MOVX    A,@DPTR
0CD5 FF                MOV     R7,A
0CD6 900000      R     MOV     DPTR,#packet_data+022EH
0CD9 120000      E     LCALL   ?C?LSTXDATA
                                           ; SOURCE LINE # 535
0CDC 900000      R     MOV     DPTR,#max_step_str_len
0CDF E0                MOVX    A,@DPTR
0CE0 750000      R     MOV     i,#00H
0CE3 F500        R     MOV     i+01H,A
0CE5         ?C0118:
0CE5 E500        R     MOV     A,i+01H
0CE7 4500        R     ORL     A,i
0CE9 602E              JZ      ?C0119
                                           ; SOURCE LINE # 536
0CEB 900000      R     MOV     DPTR,#max_step_str_len
0CEE E0                MOVX    A,@DPTR
0CEF C3                CLR     C
0CF0 9500        R     SUBB    A,i+01H
0CF2 FF                MOV     R7,A
0CF3 E4                CLR     A
0CF4 9500        R     SUBB    A,i
0CF6 FE                MOV     R6,A
0CF7 7400        R     MOV     A,#LOW max_step_str
0CF9 2F                ADD     A,R7
0CFA F582              MOV     DPL,A
0CFC 7400        R     MOV     A,#HIGH max_step_str
0CFE 3E                ADDC    A,R6
0CFF F583              MOV     DPH,A
0D01 E0                MOVX    A,@DPTR
0D02 FD                MOV     R5,A
0D03 7400        R     MOV     A,#LOW packet_data+0232H
0D05 2F                ADD     A,R7
0D06 F582              MOV     DPL,A
0D08 7400        R     MOV     A,#HIGH packet_data+0232H
0D0A 3E                ADDC    A,R6
0D0B F583              MOV     DPH,A
0D0D ED                MOV     A,R5
0D0E F0                MOVX    @DPTR,A
0D0F E500        R     MOV     A,i+01H
0D11 1500        R     DEC     i+01H
0D13 7002              JNZ     ?C0386
0D15 1500        R     DEC     i
0D17         ?C0386:
0D17 80CC              SJMP    ?C0118
0D19         ?C0119:
                                           ; SOURCE LINE # 540
0D19 900000      R     MOV     DPTR,#packet_data+025AH
0D1C 7403              MOV     A,#03H
C51 COMPILER V9.51   COMMAND_PROCESSING                                                    02/07/2017 16:12:02 PAGE 73  

0D1E F0                MOVX    @DPTR,A
                                           ; SOURCE LINE # 541
0D1F A3                INC     DPTR
0D20 7401              MOV     A,#01H
0D22 F0                MOVX    @DPTR,A
                                           ; SOURCE LINE # 542
0D23 900000      E     MOV     DPTR,#c_mem+032H
0D26 E0                MOVX    A,@DPTR
0D27 FF                MOV     R7,A
0D28 A3                INC     DPTR
0D29 E0                MOVX    A,@DPTR
0D2A 900000      R     MOV     DPTR,#packet_data+025CH
0D2D CF                XCH     A,R7
0D2E F0                MOVX    @DPTR,A
0D2F A3                INC     DPTR
0D30 EF                MOV     A,R7
0D31 F0                MOVX    @DPTR,A
                                           ; SOURCE LINE # 543
0D32 900000      R     MOV     DPTR,#curr_limit_str_len
0D35 E0                MOVX    A,@DPTR
0D36 750000      R     MOV     i,#00H
0D39 F500        R     MOV     i+01H,A
0D3B         ?C0121:
0D3B E500        R     MOV     A,i+01H
0D3D 4500        R     ORL     A,i
0D3F 602E              JZ      ?C0122
                                           ; SOURCE LINE # 544
0D41 900000      R     MOV     DPTR,#curr_limit_str_len
0D44 E0                MOVX    A,@DPTR
0D45 C3                CLR     C
0D46 9500        R     SUBB    A,i+01H
0D48 FF                MOV     R7,A
0D49 E4                CLR     A
0D4A 9500        R     SUBB    A,i
0D4C FE                MOV     R6,A
0D4D 7400        R     MOV     A,#LOW curr_limit_str
0D4F 2F                ADD     A,R7
0D50 F582              MOV     DPL,A
0D52 7400        R     MOV     A,#HIGH curr_limit_str
0D54 3E                ADDC    A,R6
0D55 F583              MOV     DPH,A
0D57 E0                MOVX    A,@DPTR
0D58 FD                MOV     R5,A
0D59 7400        R     MOV     A,#LOW packet_data+025EH
0D5B 2F                ADD     A,R7
0D5C F582              MOV     DPL,A
0D5E 7400        R     MOV     A,#HIGH packet_data+025EH
0D60 3E                ADDC    A,R6
0D61 F583              MOV     DPH,A
0D63 ED                MOV     A,R5
0D64 F0                MOVX    @DPTR,A
0D65 E500        R     MOV     A,i+01H
0D67 1500        R     DEC     i+01H
0D69 7002              JNZ     ?C0387
0D6B 1500        R     DEC     i
0D6D         ?C0387:
0D6D 80CC              SJMP    ?C0121
0D6F         ?C0122:
                                           ; SOURCE LINE # 548
0D6F E4                CLR     A
0D70 900000      R     MOV     DPTR,#packet_data+028CH
0D73 F0                MOVX    @DPTR,A
C51 COMPILER V9.51   COMMAND_PROCESSING                                                    02/07/2017 16:12:02 PAGE 74  

                                           ; SOURCE LINE # 549
0D74 A3                INC     DPTR
0D75 04                INC     A
0D76 F0                MOVX    @DPTR,A
                                           ; SOURCE LINE # 550
0D77 900000      E     MOV     DPTR,#c_mem+07AH
0D7A E0                MOVX    A,@DPTR
0D7B 900000      R     MOV     DPTR,#packet_data+028EH
0D7E F0                MOVX    @DPTR,A
                                           ; SOURCE LINE # 551
0D7F 900000      E     MOV     DPTR,#c_mem+07AH
0D82 601F              JZ      ?C0124
                                           ; SOURCE LINE # 552
0D84 900000      E     MOV     DPTR,#?_strcat?BYTE+03H
0D87 74FF              MOV     A,#0FFH
0D89 F0                MOVX    @DPTR,A
0D8A A3                INC     DPTR
0D8B 7400        R     MOV     A,#HIGH ?SC_0
0D8D F0                MOVX    @DPTR,A
0D8E A3                INC     DPTR
0D8F 7400        R     MOV     A,#LOW ?SC_0
0D91 F0                MOVX    @DPTR,A
0D92 7B01              MOV     R3,#01H
0D94 7A00        R     MOV     R2,#HIGH emg_flag_str
0D96 7900        R     MOV     R1,#LOW emg_flag_str
0D98 120000      E     LCALL   _strcat
                                           ; SOURCE LINE # 553
0D9B 900000      R     MOV     DPTR,#string_lenght
0D9E 7425              MOV     A,#025H
0DA0 F0                MOVX    @DPTR,A
                                           ; SOURCE LINE # 554
0DA1 801D              SJMP    ?C0125
0DA3         ?C0124:
                                           ; SOURCE LINE # 555
                                           ; SOURCE LINE # 556
0DA3 900000      E     MOV     DPTR,#?_strcat?BYTE+03H
0DA6 74FF              MOV     A,#0FFH
0DA8 F0                MOVX    @DPTR,A
0DA9 A3                INC     DPTR
0DAA 7400        R     MOV     A,#HIGH ?SC_6
0DAC F0                MOVX    @DPTR,A
0DAD A3                INC     DPTR
0DAE 7400        R     MOV     A,#LOW ?SC_6
0DB0 F0                MOVX    @DPTR,A
0DB1 7B01              MOV     R3,#01H
0DB3 7A00        R     MOV     R2,#HIGH emg_flag_str
0DB5 7900        R     MOV     R1,#LOW emg_flag_str
0DB7 120000      E     LCALL   _strcat
                                           ; SOURCE LINE # 557
0DBA 900000      R     MOV     DPTR,#string_lenght
0DBD 7424              MOV     A,#024H
0DBF F0                MOVX    @DPTR,A
                                           ; SOURCE LINE # 558
0DC0         ?C0125:
                                           ; SOURCE LINE # 559
0DC0 900000      R     MOV     DPTR,#string_lenght
0DC3 E0                MOVX    A,@DPTR
0DC4 750000      R     MOV     i,#00H
0DC7 F500        R     MOV     i+01H,A
0DC9         ?C0126:
0DC9 E500        R     MOV     A,i+01H
0DCB 4500        R     ORL     A,i
C51 COMPILER V9.51   COMMAND_PROCESSING                                                    02/07/2017 16:12:02 PAGE 75  

0DCD 602E              JZ      ?C0127
                                           ; SOURCE LINE # 560
0DCF 900000      R     MOV     DPTR,#string_lenght
0DD2 E0                MOVX    A,@DPTR
0DD3 C3                CLR     C
0DD4 9500        R     SUBB    A,i+01H
0DD6 FF                MOV     R7,A
0DD7 E4                CLR     A
0DD8 9500        R     SUBB    A,i
0DDA FE                MOV     R6,A
0DDB 7400        R     MOV     A,#LOW emg_flag_str
0DDD 2F                ADD     A,R7
0DDE F582              MOV     DPL,A
0DE0 7400        R     MOV     A,#HIGH emg_flag_str
0DE2 3E                ADDC    A,R6
0DE3 F583              MOV     DPH,A
0DE5 E0                MOVX    A,@DPTR
0DE6 FD                MOV     R5,A
0DE7 7400        R     MOV     A,#LOW packet_data+028FH
0DE9 2F                ADD     A,R7
0DEA F582              MOV     DPL,A
0DEC 7400        R     MOV     A,#HIGH packet_data+028FH
0DEE 3E                ADDC    A,R6
0DEF F583              MOV     DPH,A
0DF1 ED                MOV     A,R5
0DF2 F0                MOVX    @DPTR,A
0DF3 E500        R     MOV     A,i+01H
0DF5 1500        R     DEC     i+01H
0DF7 7002              JNZ     ?C0388
0DF9 1500        R     DEC     i
0DFB         ?C0388:
0DFB 80CC              SJMP    ?C0126
0DFD         ?C0127:
                                           ; SOURCE LINE # 562
0DFD 900000      R     MOV     DPTR,#string_lenght
0E00 E0                MOVX    A,@DPTR
0E01 2400        R     ADD     A,#LOW packet_data+028FH
0E03 F582              MOV     DPL,A
0E05 E4                CLR     A
0E06 3400        R     ADDC    A,#HIGH packet_data+028FH
0E08 F583              MOV     DPH,A
0E0A 7403              MOV     A,#03H
0E0C F0                MOVX    @DPTR,A
                                           ; SOURCE LINE # 566
0E0D 900000      R     MOV     DPTR,#packet_data+02BEH
0E10 04                INC     A
0E11 F0                MOVX    @DPTR,A
                                           ; SOURCE LINE # 567
0E12 A3                INC     DPTR
0E13 7402              MOV     A,#02H
0E15 F0                MOVX    @DPTR,A
                                           ; SOURCE LINE # 568
0E16 900000      E     MOV     DPTR,#c_mem+076H
0E19 E0                MOVX    A,@DPTR
0E1A FF                MOV     R7,A
0E1B A3                INC     DPTR
0E1C E0                MOVX    A,@DPTR
0E1D 900000      R     MOV     DPTR,#packet_data+02C0H
0E20 CF                XCH     A,R7
0E21 F0                MOVX    @DPTR,A
0E22 A3                INC     DPTR
0E23 EF                MOV     A,R7
C51 COMPILER V9.51   COMMAND_PROCESSING                                                    02/07/2017 16:12:02 PAGE 76  

0E24 F0                MOVX    @DPTR,A
                                           ; SOURCE LINE # 569
0E25 900000      E     MOV     DPTR,#c_mem+078H
0E28 E0                MOVX    A,@DPTR
0E29 FF                MOV     R7,A
0E2A A3                INC     DPTR
0E2B E0                MOVX    A,@DPTR
0E2C 900000      R     MOV     DPTR,#packet_data+02C2H
0E2F CF                XCH     A,R7
0E30 F0                MOVX    @DPTR,A
0E31 A3                INC     DPTR
0E32 EF                MOV     A,R7
0E33 F0                MOVX    @DPTR,A
                                           ; SOURCE LINE # 570
0E34 900000      R     MOV     DPTR,#emg_thr_str_len
0E37 E0                MOVX    A,@DPTR
0E38 750000      R     MOV     i,#00H
0E3B F500        R     MOV     i+01H,A
0E3D         ?C0129:
0E3D E500        R     MOV     A,i+01H
0E3F 4500        R     ORL     A,i
0E41 602E              JZ      ?C0130
                                           ; SOURCE LINE # 571
0E43 900000      R     MOV     DPTR,#emg_thr_str_len
0E46 E0                MOVX    A,@DPTR
0E47 C3                CLR     C
0E48 9500        R     SUBB    A,i+01H
0E4A FF                MOV     R7,A
0E4B E4                CLR     A
0E4C 9500        R     SUBB    A,i
0E4E FE                MOV     R6,A
0E4F 7400        R     MOV     A,#LOW emg_thr_str
0E51 2F                ADD     A,R7
0E52 F582              MOV     DPL,A
0E54 7400        R     MOV     A,#HIGH emg_thr_str
0E56 3E                ADDC    A,R6
0E57 F583              MOV     DPH,A
0E59 E0                MOVX    A,@DPTR
0E5A FD                MOV     R5,A
0E5B 7400        R     MOV     A,#LOW packet_data+02C4H
0E5D 2F                ADD     A,R7
0E5E F582              MOV     DPL,A
0E60 7400        R     MOV     A,#HIGH packet_data+02C4H
0E62 3E                ADDC    A,R6
0E63 F583              MOV     DPH,A
0E65 ED                MOV     A,R5
0E66 F0                MOVX    @DPTR,A
0E67 E500        R     MOV     A,i+01H
0E69 1500        R     DEC     i+01H
0E6B 7002              JNZ     ?C0389
0E6D 1500        R     DEC     i
0E6F         ?C0389:
0E6F 80CC              SJMP    ?C0129
0E71         ?C0130:
                                           ; SOURCE LINE # 575
0E71 900000      R     MOV     DPTR,#packet_data+02F0H
0E74 7406              MOV     A,#06H
0E76 F0                MOVX    @DPTR,A
                                           ; SOURCE LINE # 576
0E77 A3                INC     DPTR
0E78 7402              MOV     A,#02H
0E7A F0                MOVX    @DPTR,A
C51 COMPILER V9.51   COMMAND_PROCESSING                                                    02/07/2017 16:12:02 PAGE 77  

                                           ; SOURCE LINE # 577
0E7B 900000      E     MOV     DPTR,#c_mem+07BH
0E7E E0                MOVX    A,@DPTR
0E7F FC                MOV     R4,A
0E80 A3                INC     DPTR
0E81 E0                MOVX    A,@DPTR
0E82 FD                MOV     R5,A
0E83 A3                INC     DPTR
0E84 E0                MOVX    A,@DPTR
0E85 FE                MOV     R6,A
0E86 A3                INC     DPTR
0E87 E0                MOVX    A,@DPTR
0E88 FF                MOV     R7,A
0E89 900000      R     MOV     DPTR,#packet_data+02F2H
0E8C 120000      E     LCALL   ?C?LSTXDATA
                                           ; SOURCE LINE # 578
0E8F 900000      E     MOV     DPTR,#c_mem+07FH
0E92 E0                MOVX    A,@DPTR
0E93 FC                MOV     R4,A
0E94 A3                INC     DPTR
0E95 E0                MOVX    A,@DPTR
0E96 FD                MOV     R5,A
0E97 A3                INC     DPTR
0E98 E0                MOVX    A,@DPTR
0E99 FE                MOV     R6,A
0E9A A3                INC     DPTR
0E9B E0                MOVX    A,@DPTR
0E9C FF                MOV     R7,A
0E9D 900000      R     MOV     DPTR,#packet_data+02F6H
0EA0 120000      E     LCALL   ?C?LSTXDATA
                                           ; SOURCE LINE # 579
0EA3 900000      R     MOV     DPTR,#emg_max_val_str_len
0EA6 E0                MOVX    A,@DPTR
0EA7 750000      R     MOV     i,#00H
0EAA F500        R     MOV     i+01H,A
0EAC         ?C0132:
0EAC E500        R     MOV     A,i+01H
0EAE 4500        R     ORL     A,i
0EB0 602E              JZ      ?C0133
                                           ; SOURCE LINE # 580
0EB2 900000      R     MOV     DPTR,#emg_max_val_str_len
0EB5 E0                MOVX    A,@DPTR
0EB6 C3                CLR     C
0EB7 9500        R     SUBB    A,i+01H
0EB9 FF                MOV     R7,A
0EBA E4                CLR     A
0EBB 9500        R     SUBB    A,i
0EBD FE                MOV     R6,A
0EBE 7400        R     MOV     A,#LOW emg_max_val_str
0EC0 2F                ADD     A,R7
0EC1 F582              MOV     DPL,A
0EC3 7400        R     MOV     A,#HIGH emg_max_val_str
0EC5 3E                ADDC    A,R6
0EC6 F583              MOV     DPH,A
0EC8 E0                MOVX    A,@DPTR
0EC9 FD                MOV     R5,A
0ECA 7400        R     MOV     A,#LOW packet_data+02FAH
0ECC 2F                ADD     A,R7
0ECD F582              MOV     DPL,A
0ECF 7400        R     MOV     A,#HIGH packet_data+02FAH
0ED1 3E                ADDC    A,R6
0ED2 F583              MOV     DPH,A
C51 COMPILER V9.51   COMMAND_PROCESSING                                                    02/07/2017 16:12:02 PAGE 78  

0ED4 ED                MOV     A,R5
0ED5 F0                MOVX    @DPTR,A
0ED6 E500        R     MOV     A,i+01H
0ED8 1500        R     DEC     i+01H
0EDA 7002              JNZ     ?C0390
0EDC 1500        R     DEC     i
0EDE         ?C0390:
0EDE 80CC              SJMP    ?C0132
0EE0         ?C0133:
                                           ; SOURCE LINE # 584
0EE0 900000      R     MOV     DPTR,#packet_data+0322H
0EE3 7402              MOV     A,#02H
0EE5 F0                MOVX    @DPTR,A
                                           ; SOURCE LINE # 585
0EE6 A3                INC     DPTR
0EE7 14                DEC     A
0EE8 F0                MOVX    @DPTR,A
                                           ; SOURCE LINE # 586
0EE9 900000      E     MOV     DPTR,#c_mem+083H
0EEC E0                MOVX    A,@DPTR
0EED 900000      R     MOV     DPTR,#packet_data+0324H
0EF0 F0                MOVX    @DPTR,A
                                           ; SOURCE LINE # 587
0EF1 900000      R     MOV     DPTR,#emg_max_speed_str_len
0EF4 E0                MOVX    A,@DPTR
0EF5 750000      R     MOV     i,#00H
0EF8 F500        R     MOV     i+01H,A
0EFA         ?C0135:
0EFA E500        R     MOV     A,i+01H
0EFC 4500        R     ORL     A,i
0EFE 602E              JZ      ?C0136
                                           ; SOURCE LINE # 588
0F00 900000      R     MOV     DPTR,#emg_max_speed_str_len
0F03 E0                MOVX    A,@DPTR
0F04 C3                CLR     C
0F05 9500        R     SUBB    A,i+01H
0F07 FF                MOV     R7,A
0F08 E4                CLR     A
0F09 9500        R     SUBB    A,i
0F0B FE                MOV     R6,A
0F0C 7400        R     MOV     A,#LOW emg_max_speed_str
0F0E 2F                ADD     A,R7
0F0F F582              MOV     DPL,A
0F11 7400        R     MOV     A,#HIGH emg_max_speed_str
0F13 3E                ADDC    A,R6
0F14 F583              MOV     DPH,A
0F16 E0                MOVX    A,@DPTR
0F17 FD                MOV     R5,A
0F18 7400        R     MOV     A,#LOW packet_data+0325H
0F1A 2F                ADD     A,R7
0F1B F582              MOV     DPL,A
0F1D 7400        R     MOV     A,#HIGH packet_data+0325H
0F1F 3E                ADDC    A,R6
0F20 F583              MOV     DPH,A
0F22 ED                MOV     A,R5
0F23 F0                MOVX    @DPTR,A
0F24 E500        R     MOV     A,i+01H
0F26 1500        R     DEC     i+01H
0F28 7002              JNZ     ?C0391
0F2A 1500        R     DEC     i
0F2C         ?C0391:
0F2C 80CC              SJMP    ?C0135
C51 COMPILER V9.51   COMMAND_PROCESSING                                                    02/07/2017 16:12:02 PAGE 79  

0F2E         ?C0136:
                                           ; SOURCE LINE # 592
0F2E E4                CLR     A
0F2F 900000      R     MOV     DPTR,#packet_data+0354H
0F32 F0                MOVX    @DPTR,A
                                           ; SOURCE LINE # 593
0F33 A3                INC     DPTR
0F34 04                INC     A
0F35 F0                MOVX    @DPTR,A
                                           ; SOURCE LINE # 594
0F36 900000      E     MOV     DPTR,#c_mem+084H
0F39 E0                MOVX    A,@DPTR
0F3A 900000      R     MOV     DPTR,#packet_data+0356H
0F3D F0                MOVX    @DPTR,A
                                           ; SOURCE LINE # 595
0F3E 900000      E     MOV     DPTR,#c_mem+084H
0F41 601F              JZ      ?C0138
                                           ; SOURCE LINE # 596
0F43 900000      E     MOV     DPTR,#?_strcat?BYTE+03H
0F46 74FF              MOV     A,#0FFH
0F48 F0                MOVX    @DPTR,A
0F49 A3                INC     DPTR
0F4A 7400        R     MOV     A,#HIGH ?SC_0
0F4C F0                MOVX    @DPTR,A
0F4D A3                INC     DPTR
0F4E 7400        R     MOV     A,#LOW ?SC_0
0F50 F0                MOVX    @DPTR,A
0F51 7B01              MOV     R3,#01H
0F53 7A00        R     MOV     R2,#HIGH abs_enc_str
0F55 7900        R     MOV     R1,#LOW abs_enc_str
0F57 120000      E     LCALL   _strcat
                                           ; SOURCE LINE # 597
0F5A 900000      R     MOV     DPTR,#string_lenght
0F5D 7424              MOV     A,#024H
0F5F F0                MOVX    @DPTR,A
                                           ; SOURCE LINE # 598
0F60 801D              SJMP    ?C0139
0F62         ?C0138:
                                           ; SOURCE LINE # 599
                                           ; SOURCE LINE # 600
0F62 900000      E     MOV     DPTR,#?_strcat?BYTE+03H
0F65 74FF              MOV     A,#0FFH
0F67 F0                MOVX    @DPTR,A
0F68 A3                INC     DPTR
0F69 7400        R     MOV     A,#HIGH ?SC_6
0F6B F0                MOVX    @DPTR,A
0F6C A3                INC     DPTR
0F6D 7400        R     MOV     A,#LOW ?SC_6
0F6F F0                MOVX    @DPTR,A
0F70 7B01              MOV     R3,#01H
0F72 7A00        R     MOV     R2,#HIGH abs_enc_str
0F74 7900        R     MOV     R1,#LOW abs_enc_str
0F76 120000      E     LCALL   _strcat
                                           ; SOURCE LINE # 601
0F79 900000      R     MOV     DPTR,#string_lenght
0F7C 7423              MOV     A,#023H
0F7E F0                MOVX    @DPTR,A
                                           ; SOURCE LINE # 602
0F7F         ?C0139:
                                           ; SOURCE LINE # 603
0F7F 900000      R     MOV     DPTR,#string_lenght
0F82 E0                MOVX    A,@DPTR
C51 COMPILER V9.51   COMMAND_PROCESSING                                                    02/07/2017 16:12:02 PAGE 80  

0F83 750000      R     MOV     i,#00H
0F86 F500        R     MOV     i+01H,A
0F88         ?C0140:
0F88 E500        R     MOV     A,i+01H
0F8A 4500        R     ORL     A,i
0F8C 602E              JZ      ?C0141
                                           ; SOURCE LINE # 604
0F8E 900000      R     MOV     DPTR,#string_lenght
0F91 E0                MOVX    A,@DPTR
0F92 C3                CLR     C
0F93 9500        R     SUBB    A,i+01H
0F95 FF                MOV     R7,A
0F96 E4                CLR     A
0F97 9500        R     SUBB    A,i
0F99 FE                MOV     R6,A
0F9A 7400        R     MOV     A,#LOW abs_enc_str
0F9C 2F                ADD     A,R7
0F9D F582              MOV     DPL,A
0F9F 7400        R     MOV     A,#HIGH abs_enc_str
0FA1 3E                ADDC    A,R6
0FA2 F583              MOV     DPH,A
0FA4 E0                MOVX    A,@DPTR
0FA5 FD                MOV     R5,A
0FA6 7400        R     MOV     A,#LOW packet_data+0357H
0FA8 2F                ADD     A,R7
0FA9 F582              MOV     DPL,A
0FAB 7400        R     MOV     A,#HIGH packet_data+0357H
0FAD 3E                ADDC    A,R6
0FAE F583              MOV     DPH,A
0FB0 ED                MOV     A,R5
0FB1 F0                MOVX    @DPTR,A
0FB2 E500        R     MOV     A,i+01H
0FB4 1500        R     DEC     i+01H
0FB6 7002              JNZ     ?C0392
0FB8 1500        R     DEC     i
0FBA         ?C0392:
0FBA 80CC              SJMP    ?C0140
0FBC         ?C0141:
                                           ; SOURCE LINE # 606
0FBC 900000      R     MOV     DPTR,#string_lenght
0FBF E0                MOVX    A,@DPTR
0FC0 2400        R     ADD     A,#LOW packet_data+0357H
0FC2 F582              MOV     DPL,A
0FC4 E4                CLR     A
0FC5 3400        R     ADDC    A,#HIGH packet_data+0357H
0FC7 F583              MOV     DPH,A
0FC9 7403              MOV     A,#03H
0FCB F0                MOVX    @DPTR,A
                                           ; SOURCE LINE # 610
0FCC 900000      R     MOV     DPTR,#packet_data+0386H
0FCF 7401              MOV     A,#01H
0FD1 F0                MOVX    @DPTR,A
                                           ; SOURCE LINE # 611
0FD2 A3                INC     DPTR
0FD3 F0                MOVX    @DPTR,A
                                           ; SOURCE LINE # 612
0FD4 900000      E     MOV     DPTR,#c_mem+085H
0FD7 E0                MOVX    A,@DPTR
0FD8 900000      R     MOV     DPTR,#packet_data+0388H
0FDB F0                MOVX    @DPTR,A
                                           ; SOURCE LINE # 613
0FDC 900000      R     MOV     DPTR,#handle_ratio_str_len
C51 COMPILER V9.51   COMMAND_PROCESSING                                                    02/07/2017 16:12:02 PAGE 81  

0FDF E0                MOVX    A,@DPTR
0FE0 750000      R     MOV     i,#00H
0FE3 F500        R     MOV     i+01H,A
0FE5         ?C0143:
0FE5 E500        R     MOV     A,i+01H
0FE7 4500        R     ORL     A,i
0FE9 602E              JZ      ?C0144
                                           ; SOURCE LINE # 614
0FEB 900000      R     MOV     DPTR,#handle_ratio_str_len
0FEE E0                MOVX    A,@DPTR
0FEF C3                CLR     C
0FF0 9500        R     SUBB    A,i+01H
0FF2 FF                MOV     R7,A
0FF3 E4                CLR     A
0FF4 9500        R     SUBB    A,i
0FF6 FE                MOV     R6,A
0FF7 7400        R     MOV     A,#LOW handle_ratio_str
0FF9 2F                ADD     A,R7
0FFA F582              MOV     DPL,A
0FFC 7400        R     MOV     A,#HIGH handle_ratio_str
0FFE 3E                ADDC    A,R6
0FFF F583              MOV     DPH,A
1001 E0                MOVX    A,@DPTR
1002 FD                MOV     R5,A
1003 7400        R     MOV     A,#LOW packet_data+0389H
1005 2F                ADD     A,R7
1006 F582              MOV     DPL,A
1008 7400        R     MOV     A,#HIGH packet_data+0389H
100A 3E                ADDC    A,R6
100B F583              MOV     DPH,A
100D ED                MOV     A,R5
100E F0                MOVX    @DPTR,A
100F E500        R     MOV     A,i+01H
1011 1500        R     DEC     i+01H
1013 7002              JNZ     ?C0393
1015 1500        R     DEC     i
1017         ?C0393:
1017 80CC              SJMP    ?C0143
1019         ?C0144:
                                           ; SOURCE LINE # 618
1019 E4                CLR     A
101A 900000      R     MOV     DPTR,#packet_data+03B8H
101D F0                MOVX    @DPTR,A
                                           ; SOURCE LINE # 619
101E A3                INC     DPTR
101F 04                INC     A
1020 F0                MOVX    @DPTR,A
                                           ; SOURCE LINE # 620
1021 900000      E     MOV     DPTR,#c_mem+09EH
1024 E0                MOVX    A,@DPTR
1025 900000      R     MOV     DPTR,#packet_data+03BAH
1028 F0                MOVX    @DPTR,A
                                           ; SOURCE LINE # 621
1029 900000      E     MOV     DPTR,#c_mem+09EH
102C 601F              JZ      ?C0146
                                           ; SOURCE LINE # 622
102E 900000      E     MOV     DPTR,#?_strcat?BYTE+03H
1031 74FF              MOV     A,#0FFH
1033 F0                MOVX    @DPTR,A
1034 A3                INC     DPTR
1035 7400        R     MOV     A,#HIGH ?SC_0
1037 F0                MOVX    @DPTR,A
C51 COMPILER V9.51   COMMAND_PROCESSING                                                    02/07/2017 16:12:02 PAGE 82  

1038 A3                INC     DPTR
1039 7400        R     MOV     A,#LOW ?SC_0
103B F0                MOVX    @DPTR,A
103C 7B01              MOV     R3,#01H
103E 7A00        R     MOV     R2,#HIGH motor_type_str
1040 7900        R     MOV     R1,#LOW motor_type_str
1042 120000      E     LCALL   _strcat
                                           ; SOURCE LINE # 623
1045 900000      R     MOV     DPTR,#string_lenght
1048 7418              MOV     A,#018H
104A F0                MOVX    @DPTR,A
                                           ; SOURCE LINE # 624
104B 801D              SJMP    ?C0147
104D         ?C0146:
                                           ; SOURCE LINE # 625
                                           ; SOURCE LINE # 626
104D 900000      E     MOV     DPTR,#?_strcat?BYTE+03H
1050 74FF              MOV     A,#0FFH
1052 F0                MOVX    @DPTR,A
1053 A3                INC     DPTR
1054 7400        R     MOV     A,#HIGH ?SC_6
1056 F0                MOVX    @DPTR,A
1057 A3                INC     DPTR
1058 7400        R     MOV     A,#LOW ?SC_6
105A F0                MOVX    @DPTR,A
105B 7B01              MOV     R3,#01H
105D 7A00        R     MOV     R2,#HIGH motor_type_str
105F 7900        R     MOV     R1,#LOW motor_type_str
1061 120000      E     LCALL   _strcat
                                           ; SOURCE LINE # 627
1064 900000      R     MOV     DPTR,#string_lenght
1067 7417              MOV     A,#017H
1069 F0                MOVX    @DPTR,A
                                           ; SOURCE LINE # 628
106A         ?C0147:
                                           ; SOURCE LINE # 629
106A 900000      R     MOV     DPTR,#string_lenght
106D E0                MOVX    A,@DPTR
106E 750000      R     MOV     i,#00H
1071 F500        R     MOV     i+01H,A
1073         ?C0148:
1073 E500        R     MOV     A,i+01H
1075 4500        R     ORL     A,i
1077 602E              JZ      ?C0149
                                           ; SOURCE LINE # 630
1079 900000      R     MOV     DPTR,#string_lenght
107C E0                MOVX    A,@DPTR
107D C3                CLR     C
107E 9500        R     SUBB    A,i+01H
1080 FF                MOV     R7,A
1081 E4                CLR     A
1082 9500        R     SUBB    A,i
1084 FE                MOV     R6,A
1085 7400        R     MOV     A,#LOW motor_type_str
1087 2F                ADD     A,R7
1088 F582              MOV     DPL,A
108A 7400        R     MOV     A,#HIGH motor_type_str
108C 3E                ADDC    A,R6
108D F583              MOV     DPH,A
108F E0                MOVX    A,@DPTR
1090 FD                MOV     R5,A
1091 7400        R     MOV     A,#LOW packet_data+03BBH
C51 COMPILER V9.51   COMMAND_PROCESSING                                                    02/07/2017 16:12:02 PAGE 83  

1093 2F                ADD     A,R7
1094 F582              MOV     DPL,A
1096 7400        R     MOV     A,#HIGH packet_data+03BBH
1098 3E                ADDC    A,R6
1099 F583              MOV     DPH,A
109B ED                MOV     A,R5
109C F0                MOVX    @DPTR,A
109D E500        R     MOV     A,i+01H
109F 1500        R     DEC     i+01H
10A1 7002              JNZ     ?C0394
10A3 1500        R     DEC     i
10A5         ?C0394:
10A5 80CC              SJMP    ?C0148
10A7         ?C0149:
                                           ; SOURCE LINE # 632
10A7 900000      R     MOV     DPTR,#string_lenght
10AA E0                MOVX    A,@DPTR
10AB 2400        R     ADD     A,#LOW packet_data+03BBH
10AD F582              MOV     DPL,A
10AF E4                CLR     A
10B0 3400        R     ADDC    A,#HIGH packet_data+03BBH
10B2 F583              MOV     DPH,A
10B4 7403              MOV     A,#03H
10B6 F0                MOVX    @DPTR,A
                                           ; SOURCE LINE # 636
10B7 900000      R     MOV     DPTR,#packet_data+03EAH
10BA 7407              MOV     A,#07H
10BC F0                MOVX    @DPTR,A
                                           ; SOURCE LINE # 637
10BD A3                INC     DPTR
10BE 14                DEC     A
10BF F0                MOVX    @DPTR,A
                                           ; SOURCE LINE # 638
10C0 E4                CLR     A
10C1 F500        R     MOV     i,A
10C3 F500        R     MOV     i+01H,A
10C5         ?C0151:
10C5 C3                CLR     C
10C6 E500        R     MOV     A,i+01H
10C8 9406              SUBB    A,#06H
10CA E500        R     MOV     A,i
10CC 9400              SUBB    A,#00H
10CE 5054              JNC     ?C0152
                                           ; SOURCE LINE # 639
10D0 E500        R     MOV     A,i+01H
10D2 AE00        R     MOV     R6,i
10D4 7802              MOV     R0,#02H
10D6         ?C0395:
10D6 C3                CLR     C
10D7 33                RLC     A
10D8 CE                XCH     A,R6
10D9 33                RLC     A
10DA CE                XCH     A,R6
10DB D8F9              DJNZ    R0,?C0395
10DD 2400        E     ADD     A,#LOW c_mem+086H
10DF F582              MOV     DPL,A
10E1 7400        E     MOV     A,#HIGH c_mem+086H
10E3 3E                ADDC    A,R6
10E4 F583              MOV     DPH,A
10E6 E0                MOVX    A,@DPTR
10E7 FC                MOV     R4,A
10E8 A3                INC     DPTR
C51 COMPILER V9.51   COMMAND_PROCESSING                                                    02/07/2017 16:12:02 PAGE 84  

10E9 E0                MOVX    A,@DPTR
10EA FD                MOV     R5,A
10EB A3                INC     DPTR
10EC E0                MOVX    A,@DPTR
10ED FE                MOV     R6,A
10EE A3                INC     DPTR
10EF E0                MOVX    A,@DPTR
10F0 FF                MOV     R7,A
10F1 C004              PUSH    AR4
10F3 C005              PUSH    AR5
10F5 C006              PUSH    AR6
10F7 C007              PUSH    AR7
10F9 E500        R     MOV     A,i+01H
10FB AE00        R     MOV     R6,i
10FD 7802              MOV     R0,#02H
10FF         ?C0396:
10FF C3                CLR     C
1100 33                RLC     A
1101 CE                XCH     A,R6
1102 33                RLC     A
1103 CE                XCH     A,R6
1104 D8F9              DJNZ    R0,?C0396
1106 2400        R     ADD     A,#LOW packet_data+03ECH
1108 F582              MOV     DPL,A
110A 7400        R     MOV     A,#HIGH packet_data+03ECH
110C 3E                ADDC    A,R6
110D F583              MOV     DPH,A
110F D007              POP     AR7
1111 D006              POP     AR6
1113 D005              POP     AR5
1115 D004              POP     AR4
1117 120000      E     LCALL   ?C?LSTXDATA
111A 0500        R     INC     i+01H
111C E500        R     MOV     A,i+01H
111E 7002              JNZ     ?C0397
1120 0500        R     INC     i
1122         ?C0397:
1122 80A1              SJMP    ?C0151
1124         ?C0152:
                                           ; SOURCE LINE # 640
1124 900000      R     MOV     DPTR,#curr_lookup_str_len
1127 E0                MOVX    A,@DPTR
1128 750000      R     MOV     i,#00H
112B F500        R     MOV     i+01H,A
112D         ?C0154:
112D E500        R     MOV     A,i+01H
112F 4500        R     ORL     A,i
1131 602E              JZ      ?C0155
                                           ; SOURCE LINE # 641
1133 900000      R     MOV     DPTR,#curr_lookup_str_len
1136 E0                MOVX    A,@DPTR
1137 C3                CLR     C
1138 9500        R     SUBB    A,i+01H
113A FF                MOV     R7,A
113B E4                CLR     A
113C 9500        R     SUBB    A,i
113E FE                MOV     R6,A
113F 7400        R     MOV     A,#LOW curr_lookup_str
1141 2F                ADD     A,R7
1142 F582              MOV     DPL,A
1144 7400        R     MOV     A,#HIGH curr_lookup_str
1146 3E                ADDC    A,R6
C51 COMPILER V9.51   COMMAND_PROCESSING                                                    02/07/2017 16:12:02 PAGE 85  

1147 F583              MOV     DPH,A
1149 E0                MOVX    A,@DPTR
114A FD                MOV     R5,A
114B 7400        R     MOV     A,#LOW packet_data+0404H
114D 2F                ADD     A,R7
114E F582              MOV     DPL,A
1150 7400        R     MOV     A,#HIGH packet_data+0404H
1152 3E                ADDC    A,R6
1153 F583              MOV     DPH,A
1155 ED                MOV     A,R5
1156 F0                MOVX    @DPTR,A
1157 E500        R     MOV     A,i+01H
1159 1500        R     DEC     i+01H
115B 7002              JNZ     ?C0398
115D 1500        R     DEC     i
115F         ?C0398:
115F 80CC              SJMP    ?C0154
1161         ?C0155:
                                           ; SOURCE LINE # 645
1161 900000      R     MOV     DPTR,#packet_data+041CH
1164 7404              MOV     A,#04H
1166 F0                MOVX    @DPTR,A
                                           ; SOURCE LINE # 646
1167 A3                INC     DPTR
1168 7401              MOV     A,#01H
116A F0                MOVX    @DPTR,A
                                           ; SOURCE LINE # 647
116B 900000      E     MOV     DPTR,#c_mem+09FH
116E E0                MOVX    A,@DPTR
116F FF                MOV     R7,A
1170 A3                INC     DPTR
1171 E0                MOVX    A,@DPTR
1172 900000      R     MOV     DPTR,#packet_data+041EH
1175 CF                XCH     A,R7
1176 F0                MOVX    @DPTR,A
1177 A3                INC     DPTR
1178 EF                MOV     A,R7
1179 F0                MOVX    @DPTR,A
                                           ; SOURCE LINE # 648
117A 900000      R     MOV     DPTR,#closure_speed_str_len
117D E0                MOVX    A,@DPTR
117E 750000      R     MOV     i,#00H
1181 F500        R     MOV     i+01H,A
1183         ?C0157:
1183 E500        R     MOV     A,i+01H
1185 4500        R     ORL     A,i
1187 602E              JZ      ?C0158
                                           ; SOURCE LINE # 649
1189 900000      R     MOV     DPTR,#closure_speed_str_len
118C E0                MOVX    A,@DPTR
118D C3                CLR     C
118E 9500        R     SUBB    A,i+01H
1190 FF                MOV     R7,A
1191 E4                CLR     A
1192 9500        R     SUBB    A,i
1194 FE                MOV     R6,A
1195 7400        R     MOV     A,#LOW closure_speed_str
1197 2F                ADD     A,R7
1198 F582              MOV     DPL,A
119A 7400        R     MOV     A,#HIGH closure_speed_str
119C 3E                ADDC    A,R6
119D F583              MOV     DPH,A
C51 COMPILER V9.51   COMMAND_PROCESSING                                                    02/07/2017 16:12:02 PAGE 86  

119F E0                MOVX    A,@DPTR
11A0 FD                MOV     R5,A
11A1 7400        R     MOV     A,#LOW packet_data+0420H
11A3 2F                ADD     A,R7
11A4 F582              MOV     DPL,A
11A6 7400        R     MOV     A,#HIGH packet_data+0420H
11A8 3E                ADDC    A,R6
11A9 F583              MOV     DPH,A
11AB ED                MOV     A,R5
11AC F0                MOVX    @DPTR,A
11AD E500        R     MOV     A,i+01H
11AF 1500        R     DEC     i+01H
11B1 7002              JNZ     ?C0399
11B3 1500        R     DEC     i
11B5         ?C0399:
11B5 80CC              SJMP    ?C0157
11B7         ?C0158:
                                           ; SOURCE LINE # 653
11B7 900000      R     MOV     DPTR,#packet_data+044EH
11BA 7403              MOV     A,#03H
11BC F0                MOVX    @DPTR,A
                                           ; SOURCE LINE # 654
11BD A3                INC     DPTR
11BE 7401              MOV     A,#01H
11C0 F0                MOVX    @DPTR,A
                                           ; SOURCE LINE # 655
11C1 900000      E     MOV     DPTR,#c_mem+0A1H
11C4 E0                MOVX    A,@DPTR
11C5 FF                MOV     R7,A
11C6 A3                INC     DPTR
11C7 E0                MOVX    A,@DPTR
11C8 900000      R     MOV     DPTR,#packet_data+0450H
11CB CF                XCH     A,R7
11CC F0                MOVX    @DPTR,A
11CD A3                INC     DPTR
11CE EF                MOV     A,R7
11CF F0                MOVX    @DPTR,A
                                           ; SOURCE LINE # 656
11D0 900000      R     MOV     DPTR,#joystick_thr_str_len
11D3 E0                MOVX    A,@DPTR
11D4 750000      R     MOV     i,#00H
11D7 F500        R     MOV     i+01H,A
11D9         ?C0160:
11D9 E500        R     MOV     A,i+01H
11DB 4500        R     ORL     A,i
11DD 602E              JZ      ?C0161
                                           ; SOURCE LINE # 657
11DF 900000      R     MOV     DPTR,#joystick_thr_str_len
11E2 E0                MOVX    A,@DPTR
11E3 C3                CLR     C
11E4 9500        R     SUBB    A,i+01H
11E6 FF                MOV     R7,A
11E7 E4                CLR     A
11E8 9500        R     SUBB    A,i
11EA FE                MOV     R6,A
11EB 7400        R     MOV     A,#LOW joystick_thr_str
11ED 2F                ADD     A,R7
11EE F582              MOV     DPL,A
11F0 7400        R     MOV     A,#HIGH joystick_thr_str
11F2 3E                ADDC    A,R6
11F3 F583              MOV     DPH,A
11F5 E0                MOVX    A,@DPTR
C51 COMPILER V9.51   COMMAND_PROCESSING                                                    02/07/2017 16:12:02 PAGE 87  

11F6 FD                MOV     R5,A
11F7 7400        R     MOV     A,#LOW packet_data+0452H
11F9 2F                ADD     A,R7
11FA F582              MOV     DPL,A
11FC 7400        R     MOV     A,#HIGH packet_data+0452H
11FE 3E                ADDC    A,R6
11FF F583              MOV     DPH,A
1201 ED                MOV     A,R5
1202 F0                MOVX    @DPTR,A
1203 E500        R     MOV     A,i+01H
1205 1500        R     DEC     i+01H
1207 7002              JNZ     ?C0400
1209 1500        R     DEC     i
120B         ?C0400:
120B 80CC              SJMP    ?C0160
120D         ?C0161:
                                           ; SOURCE LINE # 661
120D 900000      R     MOV     DPTR,#packet_data+0480H
1210 7404              MOV     A,#04H
1212 F0                MOVX    @DPTR,A
                                           ; SOURCE LINE # 662
1213 A3                INC     DPTR
1214 7402              MOV     A,#02H
1216 F0                MOVX    @DPTR,A
                                           ; SOURCE LINE # 663
1217 900000      E     MOV     DPTR,#c_mem+0A3H
121A E0                MOVX    A,@DPTR
121B FF                MOV     R7,A
121C A3                INC     DPTR
121D E0                MOVX    A,@DPTR
121E 900000      R     MOV     DPTR,#packet_data+0904H
1221 CF                XCH     A,R7
1222 F0                MOVX    @DPTR,A
1223 A3                INC     DPTR
1224 EF                MOV     A,R7
1225 F0                MOVX    @DPTR,A
                                           ; SOURCE LINE # 664
1226 900000      E     MOV     DPTR,#c_mem+0A5H
1229 E0                MOVX    A,@DPTR
122A FF                MOV     R7,A
122B A3                INC     DPTR
122C E0                MOVX    A,@DPTR
122D 900000      R     MOV     DPTR,#packet_data+0908H
1230 CF                XCH     A,R7
1231 F0                MOVX    @DPTR,A
1232 A3                INC     DPTR
1233 EF                MOV     A,R7
1234 F0                MOVX    @DPTR,A
                                           ; SOURCE LINE # 665
1235 900000      R     MOV     DPTR,#joystick_gains_str_len
1238 E0                MOVX    A,@DPTR
1239 750000      R     MOV     i,#00H
123C F500        R     MOV     i+01H,A
123E         ?C0163:
123E E500        R     MOV     A,i+01H
1240 4500        R     ORL     A,i
1242 602E              JZ      ?C0164
                                           ; SOURCE LINE # 666
1244 900000      R     MOV     DPTR,#joystick_gains_str_len
1247 E0                MOVX    A,@DPTR
1248 C3                CLR     C
1249 9500        R     SUBB    A,i+01H
C51 COMPILER V9.51   COMMAND_PROCESSING                                                    02/07/2017 16:12:02 PAGE 88  

124B FF                MOV     R7,A
124C E4                CLR     A
124D 9500        R     SUBB    A,i
124F FE                MOV     R6,A
1250 7400        R     MOV     A,#LOW joystick_gains_str
1252 2F                ADD     A,R7
1253 F582              MOV     DPL,A
1255 7400        R     MOV     A,#HIGH joystick_gains_str
1257 3E                ADDC    A,R6
1258 F583              MOV     DPH,A
125A E0                MOVX    A,@DPTR
125B FD                MOV     R5,A
125C 7400        R     MOV     A,#LOW packet_data+0486H
125E 2F                ADD     A,R7
125F F582              MOV     DPL,A
1261 7400        R     MOV     A,#HIGH packet_data+0486H
1263 3E                ADDC    A,R6
1264 F583              MOV     DPH,A
1266 ED                MOV     A,R5
1267 F0                MOVX    @DPTR,A
1268 E500        R     MOV     A,i+01H
126A 1500        R     DEC     i+01H
126C 7002              JNZ     ?C0401
126E 1500        R     DEC     i
1270         ?C0401:
1270 80CC              SJMP    ?C0163
1272         ?C0164:
                                           ; SOURCE LINE # 671
1272 900000      R     MOV     DPTR,#input_mode_menu_len
1275 E0                MOVX    A,@DPTR
1276 750000      R     MOV     i,#00H
1279 F500        R     MOV     i+01H,A
127B         ?C0166:
127B E500        R     MOV     A,i+01H
127D 4500        R     ORL     A,i
127F 602E              JZ      ?C0167
                                           ; SOURCE LINE # 672
1281 900000      R     MOV     DPTR,#input_mode_menu_len
1284 E0                MOVX    A,@DPTR
1285 C3                CLR     C
1286 9500        R     SUBB    A,i+01H
1288 FF                MOV     R7,A
1289 E4                CLR     A
128A 9500        R     SUBB    A,i
128C FE                MOV     R6,A
128D 7400        R     MOV     A,#LOW input_mode_menu
128F 2F                ADD     A,R7
1290 F582              MOV     DPL,A
1292 7400        R     MOV     A,#HIGH input_mode_menu
1294 3E                ADDC    A,R6
1295 F583              MOV     DPH,A
1297 E0                MOVX    A,@DPTR
1298 FD                MOV     R5,A
1299 7400        R     MOV     A,#LOW packet_data+04B2H
129B 2F                ADD     A,R7
129C F582              MOV     DPL,A
129E 7400        R     MOV     A,#HIGH packet_data+04B2H
12A0 3E                ADDC    A,R6
12A1 F583              MOV     DPH,A
12A3 ED                MOV     A,R5
12A4 F0                MOVX    @DPTR,A
12A5 E500        R     MOV     A,i+01H
C51 COMPILER V9.51   COMMAND_PROCESSING                                                    02/07/2017 16:12:02 PAGE 89  

12A7 1500        R     DEC     i+01H
12A9 7002              JNZ     ?C0402
12AB 1500        R     DEC     i
12AD         ?C0402:
12AD 80CC              SJMP    ?C0166
12AF         ?C0167:
                                           ; SOURCE LINE # 674
12AF 900000      R     MOV     DPTR,#control_mode_menu_len
12B2 E0                MOVX    A,@DPTR
12B3 750000      R     MOV     i,#00H
12B6 F500        R     MOV     i+01H,A
12B8         ?C0169:
12B8 E500        R     MOV     A,i+01H
12BA 4500        R     ORL     A,i
12BC 602E              JZ      ?C0170
                                           ; SOURCE LINE # 675
12BE 900000      R     MOV     DPTR,#control_mode_menu_len
12C1 E0                MOVX    A,@DPTR
12C2 C3                CLR     C
12C3 9500        R     SUBB    A,i+01H
12C5 FF                MOV     R7,A
12C6 E4                CLR     A
12C7 9500        R     SUBB    A,i
12C9 FE                MOV     R6,A
12CA 7400        R     MOV     A,#LOW control_mode_menu
12CC 2F                ADD     A,R7
12CD F582              MOV     DPL,A
12CF 7400        R     MOV     A,#HIGH control_mode_menu
12D1 3E                ADDC    A,R6
12D2 F583              MOV     DPH,A
12D4 E0                MOVX    A,@DPTR
12D5 FD                MOV     R5,A
12D6 7400        R     MOV     A,#LOW packet_data+0548H
12D8 2F                ADD     A,R7
12D9 F582              MOV     DPL,A
12DB 7400        R     MOV     A,#HIGH packet_data+0548H
12DD 3E                ADDC    A,R6
12DE F583              MOV     DPH,A
12E0 ED                MOV     A,R5
12E1 F0                MOVX    @DPTR,A
12E2 E500        R     MOV     A,i+01H
12E4 1500        R     DEC     i+01H
12E6 7002              JNZ     ?C0403
12E8 1500        R     DEC     i
12EA         ?C0403:
12EA 80CC              SJMP    ?C0169
12EC         ?C0170:
                                           ; SOURCE LINE # 677
12EC 900000      R     MOV     DPTR,#yes_no_menu_len
12EF E0                MOVX    A,@DPTR
12F0 750000      R     MOV     i,#00H
12F3 F500        R     MOV     i+01H,A
12F5         ?C0172:
12F5 E500        R     MOV     A,i+01H
12F7 4500        R     ORL     A,i
12F9 602E              JZ      ?C0173
                                           ; SOURCE LINE # 678
12FB 900000      R     MOV     DPTR,#yes_no_menu_len
12FE E0                MOVX    A,@DPTR
12FF C3                CLR     C
1300 9500        R     SUBB    A,i+01H
1302 FF                MOV     R7,A
C51 COMPILER V9.51   COMMAND_PROCESSING                                                    02/07/2017 16:12:02 PAGE 90  

1303 E4                CLR     A
1304 9500        R     SUBB    A,i
1306 FE                MOV     R6,A
1307 7400        R     MOV     A,#LOW yes_no_menu
1309 2F                ADD     A,R7
130A F582              MOV     DPL,A
130C 7400        R     MOV     A,#HIGH yes_no_menu
130E 3E                ADDC    A,R6
130F F583              MOV     DPH,A
1311 E0                MOVX    A,@DPTR
1312 FD                MOV     R5,A
1313 7400        R     MOV     A,#LOW packet_data+05DEH
1315 2F                ADD     A,R7
1316 F582              MOV     DPL,A
1318 7400        R     MOV     A,#HIGH packet_data+05DEH
131A 3E                ADDC    A,R6
131B F583              MOV     DPH,A
131D ED                MOV     A,R5
131E F0                MOVX    @DPTR,A
131F E500        R     MOV     A,i+01H
1321 1500        R     DEC     i+01H
1323 7002              JNZ     ?C0404
1325 1500        R     DEC     i
1327         ?C0404:
1327 80CC              SJMP    ?C0172
1329         ?C0173:
                                           ; SOURCE LINE # 680
1329 7B01              MOV     R3,#01H
132B 7A00        R     MOV     R2,#HIGH packet_data
132D 7900        R     MOV     R1,#LOW packet_data
132F 900000      R     MOV     DPTR,#packet_lenght
1332 E0                MOVX    A,@DPTR
1333 A3                INC     DPTR
1334 E0                MOVX    A,@DPTR
1335 14                DEC     A
1336 FD                MOV     R5,A
1337 120000      E     LCALL   _LCRChecksum
133A 900000      R     MOV     DPTR,#packet_lenght
133D E0                MOVX    A,@DPTR
133E FC                MOV     R4,A
133F A3                INC     DPTR
1340 E0                MOVX    A,@DPTR
1341 FD                MOV     R5,A
1342 2400        R     ADD     A,#LOW packet_data+0FFFFH
1344 F582              MOV     DPL,A
1346 7400        R     MOV     A,#HIGH packet_data+0FFFFH
1348 3C                ADDC    A,R4
1349 F583              MOV     DPH,A
134B EF                MOV     A,R7
134C F0                MOVX    @DPTR,A
                                           ; SOURCE LINE # 681
134D 7B01              MOV     R3,#01H
134F 7A00        R     MOV     R2,#HIGH packet_data
1351 7900        R     MOV     R1,#LOW packet_data
1353 120000      R     LCALL   _commWrite
                                           ; SOURCE LINE # 682
1356 120000      E     LCALL   UART_RS485_ClearTxBuffer
                                           ; SOURCE LINE # 683
1359 22                RET     
                                           ; SOURCE LINE # 686
135A         ?C0175:
                                           ; SOURCE LINE # 687
C51 COMPILER V9.51   COMMAND_PROCESSING                                                    02/07/2017 16:12:02 PAGE 91  

135A 900000      E     MOV     DPTR,#g_rx+03H
135D E0                MOVX    A,@DPTR
135E 900000      E     MOV     DPTR,#g_mem+01H
1361 F0                MOVX    @DPTR,A
                                           ; SOURCE LINE # 688
1362 22                RET     
                                           ; SOURCE LINE # 691
1363         ?C0176:
                                           ; SOURCE LINE # 692
1363 900000      E     MOV     DPTR,#c_mem+036H
1366 E0                MOVX    A,@DPTR
1367 6403              XRL     A,#03H
1369 6064              JZ      ?C0177
                                           ; SOURCE LINE # 693
136B E4                CLR     A
136C FF                MOV     R7,A
136D FE                MOV     R6,A
136E 7D80              MOV     R5,#080H
1370 7C47              MOV     R4,#047H
1372 900000      E     MOV     DPTR,#g_rx+03H
1375 E0                MOVX    A,@DPTR
1376 F8                MOV     R0,A
1377 A3                INC     DPTR
1378 E0                MOVX    A,@DPTR
1379 F9                MOV     R1,A
137A A3                INC     DPTR
137B E0                MOVX    A,@DPTR
137C FA                MOV     R2,A
137D A3                INC     DPTR
137E E0                MOVX    A,@DPTR
137F FB                MOV     R3,A
1380 120000      E     LCALL   ?C?FPMUL
1383 120000      E     LCALL   ?C?CASTF
1386 900000      E     MOV     DPTR,#g_mem+02H
1389 120000      E     LCALL   ?C?LSTXDATA
                                           ; SOURCE LINE # 694
138C E4                CLR     A
138D FF                MOV     R7,A
138E FE                MOV     R6,A
138F 7D80              MOV     R5,#080H
1391 7C47              MOV     R4,#047H
1393 900000      E     MOV     DPTR,#g_rx+07H
1396 E0                MOVX    A,@DPTR
1397 F8                MOV     R0,A
1398 A3                INC     DPTR
1399 E0                MOVX    A,@DPTR
139A F9                MOV     R1,A
139B A3                INC     DPTR
139C E0                MOVX    A,@DPTR
139D FA                MOV     R2,A
139E A3                INC     DPTR
139F E0                MOVX    A,@DPTR
13A0 FB                MOV     R3,A
13A1 120000      E     LCALL   ?C?FPMUL
13A4 120000      E     LCALL   ?C?CASTF
13A7 900000      E     MOV     DPTR,#g_mem+06H
13AA 120000      E     LCALL   ?C?LSTXDATA
                                           ; SOURCE LINE # 695
13AD E4                CLR     A
13AE FF                MOV     R7,A
13AF FE                MOV     R6,A
13B0 7D80              MOV     R5,#080H
C51 COMPILER V9.51   COMMAND_PROCESSING                                                    02/07/2017 16:12:02 PAGE 92  

13B2 7C47              MOV     R4,#047H
13B4 900000      E     MOV     DPTR,#g_rx+0BH
13B7 E0                MOVX    A,@DPTR
13B8 F8                MOV     R0,A
13B9 A3                INC     DPTR
13BA E0                MOVX    A,@DPTR
13BB F9                MOV     R1,A
13BC A3                INC     DPTR
13BD E0                MOVX    A,@DPTR
13BE FA                MOV     R2,A
13BF A3                INC     DPTR
13C0 E0                MOVX    A,@DPTR
13C1 FB                MOV     R3,A
13C2 120000      E     LCALL   ?C?FPMUL
13C5 120000      E     LCALL   ?C?CASTF
13C8 900000      E     MOV     DPTR,#g_mem+0AH
13CB 120000      E     LCALL   ?C?LSTXDATA
                                           ; SOURCE LINE # 696
13CE 22                RET     
13CF         ?C0177:
                                           ; SOURCE LINE # 697
                                           ; SOURCE LINE # 698
13CF E4                CLR     A
13D0 FF                MOV     R7,A
13D1 FE                MOV     R6,A
13D2 7D80              MOV     R5,#080H
13D4 7C47              MOV     R4,#047H
13D6 900000      E     MOV     DPTR,#g_rx+03H
13D9 E0                MOVX    A,@DPTR
13DA F8                MOV     R0,A
13DB A3                INC     DPTR
13DC E0                MOVX    A,@DPTR
13DD F9                MOV     R1,A
13DE A3                INC     DPTR
13DF E0                MOVX    A,@DPTR
13E0 FA                MOV     R2,A
13E1 A3                INC     DPTR
13E2 E0                MOVX    A,@DPTR
13E3 FB                MOV     R3,A
13E4 120000      E     LCALL   ?C?FPMUL
13E7 120000      E     LCALL   ?C?CASTF
13EA 900000      E     MOV     DPTR,#g_mem+01AH
13ED 120000      E     LCALL   ?C?LSTXDATA
                                           ; SOURCE LINE # 699
13F0 E4                CLR     A
13F1 FF                MOV     R7,A
13F2 FE                MOV     R6,A
13F3 7D80              MOV     R5,#080H
13F5 7C47              MOV     R4,#047H
13F7 900000      E     MOV     DPTR,#g_rx+07H
13FA E0                MOVX    A,@DPTR
13FB F8                MOV     R0,A
13FC A3                INC     DPTR
13FD E0                MOVX    A,@DPTR
13FE F9                MOV     R1,A
13FF A3                INC     DPTR
1400 E0                MOVX    A,@DPTR
1401 FA                MOV     R2,A
1402 A3                INC     DPTR
1403 E0                MOVX    A,@DPTR
1404 FB                MOV     R3,A
1405 120000      E     LCALL   ?C?FPMUL
C51 COMPILER V9.51   COMMAND_PROCESSING                                                    02/07/2017 16:12:02 PAGE 93  

1408 120000      E     LCALL   ?C?CASTF
140B 900000      E     MOV     DPTR,#g_mem+01EH
140E 120000      E     LCALL   ?C?LSTXDATA
                                           ; SOURCE LINE # 700
1411 E4                CLR     A
1412 FF                MOV     R7,A
1413 FE                MOV     R6,A
1414 7D80              MOV     R5,#080H
1416 7C47              MOV     R4,#047H
1418 900000      E     MOV     DPTR,#g_rx+0BH
141B E0                MOVX    A,@DPTR
141C F8                MOV     R0,A
141D A3                INC     DPTR
141E E0                MOVX    A,@DPTR
141F F9                MOV     R1,A
1420 A3                INC     DPTR
1421 E0                MOVX    A,@DPTR
1422 FA                MOV     R2,A
1423 A3                INC     DPTR
1424 E0                MOVX    A,@DPTR
1425 FB                MOV     R3,A
1426 120000      E     LCALL   ?C?FPMUL
1429 120000      E     LCALL   ?C?CASTF
142C 900000      E     MOV     DPTR,#g_mem+022H
142F 120000      E     LCALL   ?C?LSTXDATA
                                           ; SOURCE LINE # 701
                                           ; SOURCE LINE # 702
1432 22                RET     
                                           ; SOURCE LINE # 705
1433         ?C0179:
                                           ; SOURCE LINE # 706
1433 900000      E     MOV     DPTR,#c_mem+036H
1436 E0                MOVX    A,@DPTR
1437 6403              XRL     A,#03H
1439 6064              JZ      ?C0180
                                           ; SOURCE LINE # 707
143B E4                CLR     A
143C FF                MOV     R7,A
143D FE                MOV     R6,A
143E 7D80              MOV     R5,#080H
1440 7C47              MOV     R4,#047H
1442 900000      E     MOV     DPTR,#g_rx+03H
1445 E0                MOVX    A,@DPTR
1446 F8                MOV     R0,A
1447 A3                INC     DPTR
1448 E0                MOVX    A,@DPTR
1449 F9                MOV     R1,A
144A A3                INC     DPTR
144B E0                MOVX    A,@DPTR
144C FA                MOV     R2,A
144D A3                INC     DPTR
144E E0                MOVX    A,@DPTR
144F FB                MOV     R3,A
1450 120000      E     LCALL   ?C?FPMUL
1453 120000      E     LCALL   ?C?CASTF
1456 900000      E     MOV     DPTR,#g_mem+0EH
1459 120000      E     LCALL   ?C?LSTXDATA
                                           ; SOURCE LINE # 708
145C E4                CLR     A
145D FF                MOV     R7,A
145E FE                MOV     R6,A
145F 7D80              MOV     R5,#080H
C51 COMPILER V9.51   COMMAND_PROCESSING                                                    02/07/2017 16:12:02 PAGE 94  

1461 7C47              MOV     R4,#047H
1463 900000      E     MOV     DPTR,#g_rx+07H
1466 E0                MOVX    A,@DPTR
1467 F8                MOV     R0,A
1468 A3                INC     DPTR
1469 E0                MOVX    A,@DPTR
146A F9                MOV     R1,A
146B A3                INC     DPTR
146C E0                MOVX    A,@DPTR
146D FA                MOV     R2,A
146E A3                INC     DPTR
146F E0                MOVX    A,@DPTR
1470 FB                MOV     R3,A
1471 120000      E     LCALL   ?C?FPMUL
1474 120000      E     LCALL   ?C?CASTF
1477 900000      E     MOV     DPTR,#g_mem+012H
147A 120000      E     LCALL   ?C?LSTXDATA
                                           ; SOURCE LINE # 709
147D E4                CLR     A
147E FF                MOV     R7,A
147F FE                MOV     R6,A
1480 7D80              MOV     R5,#080H
1482 7C47              MOV     R4,#047H
1484 900000      E     MOV     DPTR,#g_rx+0BH
1487 E0                MOVX    A,@DPTR
1488 F8                MOV     R0,A
1489 A3                INC     DPTR
148A E0                MOVX    A,@DPTR
148B F9                MOV     R1,A
148C A3                INC     DPTR
148D E0                MOVX    A,@DPTR
148E FA                MOV     R2,A
148F A3                INC     DPTR
1490 E0                MOVX    A,@DPTR
1491 FB                MOV     R3,A
1492 120000      E     LCALL   ?C?FPMUL
1495 120000      E     LCALL   ?C?CASTF
1498 900000      E     MOV     DPTR,#g_mem+016H
149B 120000      E     LCALL   ?C?LSTXDATA
                                           ; SOURCE LINE # 710
149E 22                RET     
149F         ?C0180:
                                           ; SOURCE LINE # 711
                                           ; SOURCE LINE # 712
149F E4                CLR     A
14A0 FF                MOV     R7,A
14A1 FE                MOV     R6,A
14A2 7D80              MOV     R5,#080H
14A4 7C47              MOV     R4,#047H
14A6 900000      E     MOV     DPTR,#g_rx+03H
14A9 E0                MOVX    A,@DPTR
14AA F8                MOV     R0,A
14AB A3                INC     DPTR
14AC E0                MOVX    A,@DPTR
14AD F9                MOV     R1,A
14AE A3                INC     DPTR
14AF E0                MOVX    A,@DPTR
14B0 FA                MOV     R2,A
14B1 A3                INC     DPTR
14B2 E0                MOVX    A,@DPTR
14B3 FB                MOV     R3,A
14B4 120000      E     LCALL   ?C?FPMUL
C51 COMPILER V9.51   COMMAND_PROCESSING                                                    02/07/2017 16:12:02 PAGE 95  

14B7 120000      E     LCALL   ?C?CASTF
14BA 900000      E     MOV     DPTR,#g_mem+026H
14BD 120000      E     LCALL   ?C?LSTXDATA
                                           ; SOURCE LINE # 713
14C0 E4                CLR     A
14C1 FF                MOV     R7,A
14C2 FE                MOV     R6,A
14C3 7D80              MOV     R5,#080H
14C5 7C47              MOV     R4,#047H
14C7 900000      E     MOV     DPTR,#g_rx+07H
14CA E0                MOVX    A,@DPTR
14CB F8                MOV     R0,A
14CC A3                INC     DPTR
14CD E0                MOVX    A,@DPTR
14CE F9                MOV     R1,A
14CF A3                INC     DPTR
14D0 E0                MOVX    A,@DPTR
14D1 FA                MOV     R2,A
14D2 A3                INC     DPTR
14D3 E0                MOVX    A,@DPTR
14D4 FB                MOV     R3,A
14D5 120000      E     LCALL   ?C?FPMUL
14D8 120000      E     LCALL   ?C?CASTF
14DB 900000      E     MOV     DPTR,#g_mem+02AH
14DE 120000      E     LCALL   ?C?LSTXDATA
                                           ; SOURCE LINE # 714
14E1 E4                CLR     A
14E2 FF                MOV     R7,A
14E3 FE                MOV     R6,A
14E4 7D80              MOV     R5,#080H
14E6 7C47              MOV     R4,#047H
14E8 900000      E     MOV     DPTR,#g_rx+0BH
14EB E0                MOVX    A,@DPTR
14EC F8                MOV     R0,A
14ED A3                INC     DPTR
14EE E0                MOVX    A,@DPTR
14EF F9                MOV     R1,A
14F0 A3                INC     DPTR
14F1 E0                MOVX    A,@DPTR
14F2 FA                MOV     R2,A
14F3 A3                INC     DPTR
14F4 E0                MOVX    A,@DPTR
14F5 FB                MOV     R3,A
14F6 120000      E     LCALL   ?C?FPMUL
14F9 120000      E     LCALL   ?C?CASTF
14FC 900000      E     MOV     DPTR,#g_mem+02EH
14FF 120000      E     LCALL   ?C?LSTXDATA
                                           ; SOURCE LINE # 715
                                           ; SOURCE LINE # 717
1502 22                RET     
                                           ; SOURCE LINE # 720
1503         ?C0182:
                                           ; SOURCE LINE # 721
1503 900000      E     MOV     DPTR,#g_rx+03H
1506 E0                MOVX    A,@DPTR
1507 6007              JZ      ?C0183
                                           ; SOURCE LINE # 722
1509 900000      E     MOV     DPTR,#g_mem+034H
150C 7403              MOV     A,#03H
150E F0                MOVX    @DPTR,A
150F 22                RET     
1510         ?C0183:
C51 COMPILER V9.51   COMMAND_PROCESSING                                                    02/07/2017 16:12:02 PAGE 96  

                                           ; SOURCE LINE # 724
1510 E4                CLR     A
1511 900000      E     MOV     DPTR,#g_mem+034H
1514 F0                MOVX    @DPTR,A
                                           ; SOURCE LINE # 725
1515 22                RET     
                                           ; SOURCE LINE # 728
1516         ?C0185:
                                           ; SOURCE LINE # 729
1516 900000      E     MOV     DPTR,#g_rx+03H
1519 E0                MOVX    A,@DPTR
151A 900000      E     MOV     DPTR,#g_mem+035H
151D F0                MOVX    @DPTR,A
                                           ; SOURCE LINE # 730
151E 22                RET     
                                           ; SOURCE LINE # 733
151F         ?C0186:
                                           ; SOURCE LINE # 734
151F 900000      E     MOV     DPTR,#g_rx+03H
1522 E0                MOVX    A,@DPTR
1523 900000      E     MOV     DPTR,#g_mem+036H
1526 F0                MOVX    @DPTR,A
                                           ; SOURCE LINE # 735
1527 22                RET     
                                           ; SOURCE LINE # 738
1528         ?C0187:
                                           ; SOURCE LINE # 739
1528 E4                CLR     A
1529 F500        R     MOV     i,A
152B F500        R     MOV     i+01H,A
152D         ?C0188:
152D C3                CLR     C
152E E500        R     MOV     A,i+01H
1530 9404              SUBB    A,#04H
1532 E500        R     MOV     A,i
1534 9400              SUBB    A,#00H
1536 4003              JC      $ + 5H
1538 020000      R     LJMP    ?C0224
                                           ; SOURCE LINE # 740
153B 7400        E     MOV     A,#LOW g_rx+03H
153D 2500        R     ADD     A,i+01H
153F F582              MOV     DPL,A
1541 7400        E     MOV     A,#HIGH g_rx+03H
1543 3500        R     ADDC    A,i
1545 F583              MOV     DPH,A
1547 E0                MOVX    A,@DPTR
1548 FF                MOV     R7,A
1549 7400        E     MOV     A,#LOW g_mem+037H
154B 2500        R     ADD     A,i+01H
154D F582              MOV     DPL,A
154F 7400        E     MOV     A,#HIGH g_mem+037H
1551 3500        R     ADDC    A,i
1553 F583              MOV     DPH,A
1555 EF                MOV     A,R7
1556 F0                MOVX    @DPTR,A
                                           ; SOURCE LINE # 741
1557 0500        R     INC     i+01H
1559 E500        R     MOV     A,i+01H
155B 7002              JNZ     ?C0405
155D 0500        R     INC     i
155F         ?C0405:
155F 80CC              SJMP    ?C0188
C51 COMPILER V9.51   COMMAND_PROCESSING                                                    02/07/2017 16:12:02 PAGE 97  

                                           ; SOURCE LINE # 742
                                           ; SOURCE LINE # 745
1561         ?C0191:
                                           ; SOURCE LINE # 746
1561 E4                CLR     A
1562 F500        R     MOV     i,A
1564 F500        R     MOV     i+01H,A
1566         ?C0192:
1566 C3                CLR     C
1567 E500        R     MOV     A,i+01H
1569 9404              SUBB    A,#04H
156B E500        R     MOV     A,i
156D 9400              SUBB    A,#00H
156F 4003              JC      $ + 5H
1571 020000      R     LJMP    ?C0193
                                           ; SOURCE LINE # 747
1574 E500        R     MOV     A,i+01H
1576 25E0              ADD     A,ACC
1578 FF                MOV     R7,A
1579 E500        R     MOV     A,i
157B 33                RLC     A
157C FE                MOV     R6,A
157D 7400        E     MOV     A,#LOW g_rx+03H
157F 2F                ADD     A,R7
1580 F582              MOV     DPL,A
1582 7400        E     MOV     A,#HIGH g_rx+03H
1584 3E                ADDC    A,R6
1585 F583              MOV     DPH,A
1587 E0                MOVX    A,@DPTR
1588 FE                MOV     R6,A
1589 A3                INC     DPTR
158A E0                MOVX    A,@DPTR
158B FF                MOV     R7,A
158C EE                MOV     A,R6
158D 33                RLC     A
158E 95E0              SUBB    A,ACC
1590 FD                MOV     R5,A
1591 FC                MOV     R4,A
1592 C004              PUSH    AR4
1594 C005              PUSH    AR5
1596 C006              PUSH    AR6
1598 C007              PUSH    AR7
159A E500        R     MOV     A,i+01H
159C AE00        R     MOV     R6,i
159E 7802              MOV     R0,#02H
15A0         ?C0406:
15A0 C3                CLR     C
15A1 33                RLC     A
15A2 CE                XCH     A,R6
15A3 33                RLC     A
15A4 CE                XCH     A,R6
15A5 D8F9              DJNZ    R0,?C0406
15A7 FB                MOV     R3,A
15A8 AA06              MOV     R2,AR6
15AA 2400        E     ADD     A,#LOW g_mem+03BH
15AC F582              MOV     DPL,A
15AE 7400        E     MOV     A,#HIGH g_mem+03BH
15B0 3A                ADDC    A,R2
15B1 F583              MOV     DPH,A
15B3 D007              POP     AR7
15B5 D006              POP     AR6
15B7 D005              POP     AR5
C51 COMPILER V9.51   COMMAND_PROCESSING                                                    02/07/2017 16:12:02 PAGE 98  

15B9 D004              POP     AR4
15BB 120000      E     LCALL   ?C?LSTXDATA
                                           ; SOURCE LINE # 748
15BE 7400        E     MOV     A,#LOW g_mem+03BH
15C0 2B                ADD     A,R3
15C1 F582              MOV     DPL,A
15C3 7400        E     MOV     A,#HIGH g_mem+03BH
15C5 3A                ADDC    A,R2
15C6 F583              MOV     DPH,A
15C8 C083              PUSH    DPH
15CA C082              PUSH    DPL
15CC E0                MOVX    A,@DPTR
15CD FC                MOV     R4,A
15CE A3                INC     DPTR
15CF E0                MOVX    A,@DPTR
15D0 FD                MOV     R5,A
15D1 A3                INC     DPTR
15D2 E0                MOVX    A,@DPTR
15D3 FE                MOV     R6,A
15D4 A3                INC     DPTR
15D5 E0                MOVX    A,@DPTR
15D6 FF                MOV     R7,A
15D7 7400        E     MOV     A,#LOW g_mem+037H
15D9 2500        R     ADD     A,i+01H
15DB F582              MOV     DPL,A
15DD 7400        E     MOV     A,#HIGH g_mem+037H
15DF 3500        R     ADDC    A,i
15E1 F583              MOV     DPH,A
15E3 E0                MOVX    A,@DPTR
15E4 F9                MOV     R1,A
15E5 F8                MOV     R0,A
15E6 120000      E     LCALL   ?C?LSHL
15E9 D082              POP     DPL
15EB D083              POP     DPH
15ED 120000      E     LCALL   ?C?LSTXDATA
                                           ; SOURCE LINE # 750
15F0 E500        R     MOV     A,i+01H
15F2 25E0              ADD     A,ACC
15F4 FF                MOV     R7,A
15F5 E500        R     MOV     A,i
15F7 33                RLC     A
15F8 FE                MOV     R6,A
15F9 7400        E     MOV     A,#LOW g_meas+020H
15FB 2F                ADD     A,R7
15FC F582              MOV     DPL,A
15FE 7400        E     MOV     A,#HIGH g_meas+020H
1600 3E                ADDC    A,R6
1601 F583              MOV     DPH,A
1603 E4                CLR     A
1604 F0                MOVX    @DPTR,A
1605 A3                INC     DPTR
1606 F0                MOVX    @DPTR,A
                                           ; SOURCE LINE # 751
1607 0500        R     INC     i+01H
1609 E500        R     MOV     A,i+01H
160B 7002              JNZ     ?C0407
160D 0500        R     INC     i
160F         ?C0407:
160F 020000      R     LJMP    ?C0192
1612         ?C0193:
                                           ; SOURCE LINE # 752
1612 D200        E     SETB    reset_last_value_flag
C51 COMPILER V9.51   COMMAND_PROCESSING                                                    02/07/2017 16:12:02 PAGE 99  

                                           ; SOURCE LINE # 753
1614 22                RET     
                                           ; SOURCE LINE # 756
1615         ?C0195:
                                           ; SOURCE LINE # 757
1615 E4                CLR     A
1616 F500        R     MOV     i,A
1618 F500        R     MOV     i+01H,A
161A         ?C0196:
161A C3                CLR     C
161B E500        R     MOV     A,i+01H
161D 9404              SUBB    A,#04H
161F E500        R     MOV     A,i
1621 9400              SUBB    A,#00H
1623 4003              JC      $ + 5H
1625 020000      R     LJMP    ?C0224
                                           ; SOURCE LINE # 758
1628 E500        R     MOV     A,i+01H
162A AE00        R     MOV     R6,i
162C 7802              MOV     R0,#02H
162E         ?C0408:
162E C3                CLR     C
162F 33                RLC     A
1630 CE                XCH     A,R6
1631 33                RLC     A
1632 CE                XCH     A,R6
1633 D8F9              DJNZ    R0,?C0408
1635 2400        E     ADD     A,#LOW g_rx+03H
1637 F582              MOV     DPL,A
1639 7400        E     MOV     A,#HIGH g_rx+03H
163B 3E                ADDC    A,R6
163C F583              MOV     DPH,A
163E E0                MOVX    A,@DPTR
163F FC                MOV     R4,A
1640 A3                INC     DPTR
1641 E0                MOVX    A,@DPTR
1642 FD                MOV     R5,A
1643 A3                INC     DPTR
1644 E0                MOVX    A,@DPTR
1645 FE                MOV     R6,A
1646 A3                INC     DPTR
1647 E0                MOVX    A,@DPTR
1648 FF                MOV     R7,A
1649 C004              PUSH    AR4
164B C005              PUSH    AR5
164D C006              PUSH    AR6
164F C007              PUSH    AR7
1651 E500        R     MOV     A,i+01H
1653 AE00        R     MOV     R6,i
1655 7802              MOV     R0,#02H
1657         ?C0409:
1657 C3                CLR     C
1658 33                RLC     A
1659 CE                XCH     A,R6
165A 33                RLC     A
165B CE                XCH     A,R6
165C D8F9              DJNZ    R0,?C0409
165E 2400        E     ADD     A,#LOW g_mem+04BH
1660 F582              MOV     DPL,A
1662 7400        E     MOV     A,#HIGH g_mem+04BH
1664 3E                ADDC    A,R6
1665 F583              MOV     DPH,A
C51 COMPILER V9.51   COMMAND_PROCESSING                                                    02/07/2017 16:12:02 PAGE 100 

1667 D007              POP     AR7
1669 D006              POP     AR6
166B D005              POP     AR5
166D D004              POP     AR4
166F 120000      E     LCALL   ?C?LSTXDATA
1672 0500        R     INC     i+01H
1674 E500        R     MOV     A,i+01H
1676 7002              JNZ     ?C0410
1678 0500        R     INC     i
167A         ?C0410:
167A 809E              SJMP    ?C0196
                                           ; SOURCE LINE # 759
                                           ; SOURCE LINE # 762
167C         ?C0199:
                                           ; SOURCE LINE # 763
167C 900000      E     MOV     DPTR,#g_rx+03H
167F E0                MOVX    A,@DPTR
1680 900000      E     MOV     DPTR,#g_mem+05BH
1683 F0                MOVX    @DPTR,A
                                           ; SOURCE LINE # 764
1684 22                RET     
                                           ; SOURCE LINE # 767
1685         ?C0200:
                                           ; SOURCE LINE # 768
1685 E4                CLR     A
1686 F500        R     MOV     i,A
1688 F500        R     MOV     i+01H,A
168A         ?C0201:
168A C3                CLR     C
168B E500        R     MOV     A,i+01H
168D 9402              SUBB    A,#02H
168F E500        R     MOV     A,i
1691 9400              SUBB    A,#00H
1693 4003              JC      $ + 5H
1695 020000      R     LJMP    ?C0224
                                           ; SOURCE LINE # 769
1698 E500        R     MOV     A,i+01H
169A AE00        R     MOV     R6,i
169C 7803              MOV     R0,#03H
169E         ?C0411:
169E C3                CLR     C
169F 33                RLC     A
16A0 CE                XCH     A,R6
16A1 33                RLC     A
16A2 CE                XCH     A,R6
16A3 D8F9              DJNZ    R0,?C0411
16A5 2400        E     ADD     A,#LOW g_rx+03H
16A7 F582              MOV     DPL,A
16A9 7400        E     MOV     A,#HIGH g_rx+03H
16AB 3E                ADDC    A,R6
16AC F583              MOV     DPH,A
16AE E0                MOVX    A,@DPTR
16AF FC                MOV     R4,A
16B0 A3                INC     DPTR
16B1 E0                MOVX    A,@DPTR
16B2 FD                MOV     R5,A
16B3 A3                INC     DPTR
16B4 E0                MOVX    A,@DPTR
16B5 FE                MOV     R6,A
16B6 A3                INC     DPTR
16B7 E0                MOVX    A,@DPTR
16B8 FF                MOV     R7,A
C51 COMPILER V9.51   COMMAND_PROCESSING                                                    02/07/2017 16:12:02 PAGE 101 

16B9 C004              PUSH    AR4
16BB C005              PUSH    AR5
16BD C006              PUSH    AR6
16BF C007              PUSH    AR7
16C1 E500        R     MOV     A,i+01H
16C3 AE00        R     MOV     R6,i
16C5 7802              MOV     R0,#02H
16C7         ?C0412:
16C7 C3                CLR     C
16C8 33                RLC     A
16C9 CE                XCH     A,R6
16CA 33                RLC     A
16CB CE                XCH     A,R6
16CC D8F9              DJNZ    R0,?C0412
16CE 2400        E     ADD     A,#LOW g_mem+05CH
16D0 F582              MOV     DPL,A
16D2 7400        E     MOV     A,#HIGH g_mem+05CH
16D4 3E                ADDC    A,R6
16D5 F583              MOV     DPH,A
16D7 D007              POP     AR7
16D9 D006              POP     AR6
16DB D005              POP     AR5
16DD D004              POP     AR4
16DF 120000      E     LCALL   ?C?LSTXDATA
                                           ; SOURCE LINE # 770
16E2 E500        R     MOV     A,i+01H
16E4 AE00        R     MOV     R6,i
16E6 7803              MOV     R0,#03H
16E8         ?C0413:
16E8 C3                CLR     C
16E9 33                RLC     A
16EA CE                XCH     A,R6
16EB 33                RLC     A
16EC CE                XCH     A,R6
16ED D8F9              DJNZ    R0,?C0413
16EF 2400        E     ADD     A,#LOW g_rx+07H
16F1 F582              MOV     DPL,A
16F3 7400        E     MOV     A,#HIGH g_rx+07H
16F5 3E                ADDC    A,R6
16F6 F583              MOV     DPH,A
16F8 E0                MOVX    A,@DPTR
16F9 FC                MOV     R4,A
16FA A3                INC     DPTR
16FB E0                MOVX    A,@DPTR
16FC FD                MOV     R5,A
16FD A3                INC     DPTR
16FE E0                MOVX    A,@DPTR
16FF FE                MOV     R6,A
1700 A3                INC     DPTR
1701 E0                MOVX    A,@DPTR
1702 FF                MOV     R7,A
1703 C004              PUSH    AR4
1705 C005              PUSH    AR5
1707 C006              PUSH    AR6
1709 C007              PUSH    AR7
170B E500        R     MOV     A,i+01H
170D AE00        R     MOV     R6,i
170F 7802              MOV     R0,#02H
1711         ?C0414:
1711 C3                CLR     C
1712 33                RLC     A
1713 CE                XCH     A,R6
C51 COMPILER V9.51   COMMAND_PROCESSING                                                    02/07/2017 16:12:02 PAGE 102 

1714 33                RLC     A
1715 CE                XCH     A,R6
1716 D8F9              DJNZ    R0,?C0414
1718 FB                MOV     R3,A
1719 AA06              MOV     R2,AR6
171B 2400        E     ADD     A,#LOW g_mem+064H
171D F582              MOV     DPL,A
171F 7400        E     MOV     A,#HIGH g_mem+064H
1721 3A                ADDC    A,R2
1722 F583              MOV     DPH,A
1724 D007              POP     AR7
1726 D006              POP     AR6
1728 D005              POP     AR5
172A D004              POP     AR4
172C 120000      E     LCALL   ?C?LSTXDATA
                                           ; SOURCE LINE # 772
172F 7400        E     MOV     A,#LOW g_mem+05CH
1731 2B                ADD     A,R3
1732 F582              MOV     DPL,A
1734 7400        E     MOV     A,#HIGH g_mem+05CH
1736 3A                ADDC    A,R2
1737 F583              MOV     DPH,A
1739 C083              PUSH    DPH
173B C082              PUSH    DPL
173D E0                MOVX    A,@DPTR
173E FC                MOV     R4,A
173F A3                INC     DPTR
1740 E0                MOVX    A,@DPTR
1741 FD                MOV     R5,A
1742 A3                INC     DPTR
1743 E0                MOVX    A,@DPTR
1744 FE                MOV     R6,A
1745 A3                INC     DPTR
1746 E0                MOVX    A,@DPTR
1747 FF                MOV     R7,A
1748 7400        E     MOV     A,#LOW g_mem+037H
174A 2500        R     ADD     A,i+01H
174C F582              MOV     DPL,A
174E 7400        E     MOV     A,#HIGH g_mem+037H
1750 3500        R     ADDC    A,i
1752 F583              MOV     DPH,A
1754 E0                MOVX    A,@DPTR
1755 F9                MOV     R1,A
1756 F8                MOV     R0,A
1757 120000      E     LCALL   ?C?LSHL
175A D082              POP     DPL
175C D083              POP     DPH
175E 120000      E     LCALL   ?C?LSTXDATA
                                           ; SOURCE LINE # 773
1761 E500        R     MOV     A,i+01H
1763 AE00        R     MOV     R6,i
1765 7802              MOV     R0,#02H
1767         ?C0415:
1767 C3                CLR     C
1768 33                RLC     A
1769 CE                XCH     A,R6
176A 33                RLC     A
176B CE                XCH     A,R6
176C D8F9              DJNZ    R0,?C0415
176E 2400        E     ADD     A,#LOW g_mem+064H
1770 F582              MOV     DPL,A
1772 7400        E     MOV     A,#HIGH g_mem+064H
C51 COMPILER V9.51   COMMAND_PROCESSING                                                    02/07/2017 16:12:02 PAGE 103 

1774 3E                ADDC    A,R6
1775 F583              MOV     DPH,A
1777 C083              PUSH    DPH
1779 C082              PUSH    DPL
177B E0                MOVX    A,@DPTR
177C FC                MOV     R4,A
177D A3                INC     DPTR
177E E0                MOVX    A,@DPTR
177F FD                MOV     R5,A
1780 A3                INC     DPTR
1781 E0                MOVX    A,@DPTR
1782 FE                MOV     R6,A
1783 A3                INC     DPTR
1784 E0                MOVX    A,@DPTR
1785 FF                MOV     R7,A
1786 7400        E     MOV     A,#LOW g_mem+037H
1788 2500        R     ADD     A,i+01H
178A F582              MOV     DPL,A
178C 7400        E     MOV     A,#HIGH g_mem+037H
178E 3500        R     ADDC    A,i
1790 F583              MOV     DPH,A
1792 E0                MOVX    A,@DPTR
1793 F9                MOV     R1,A
1794 F8                MOV     R0,A
1795 120000      E     LCALL   ?C?LSHL
1798 D082              POP     DPL
179A D083              POP     DPH
179C 120000      E     LCALL   ?C?LSTXDATA
                                           ; SOURCE LINE # 774
179F 0500        R     INC     i+01H
17A1 E500        R     MOV     A,i+01H
17A3 7002              JNZ     ?C0416
17A5 0500        R     INC     i
17A7         ?C0416:
17A7 020000      R     LJMP    ?C0201
                                           ; SOURCE LINE # 775
                                           ; SOURCE LINE # 778
17AA         ?C0204:
                                           ; SOURCE LINE # 779
17AA 900000      E     MOV     DPTR,#g_rx+03H
17AD E0                MOVX    A,@DPTR
17AE FC                MOV     R4,A
17AF A3                INC     DPTR
17B0 E0                MOVX    A,@DPTR
17B1 FD                MOV     R5,A
17B2 A3                INC     DPTR
17B3 E0                MOVX    A,@DPTR
17B4 FE                MOV     R6,A
17B5 A3                INC     DPTR
17B6 E0                MOVX    A,@DPTR
17B7 FF                MOV     R7,A
17B8 900000      R     MOV     DPTR,#aux_int
17BB 120000      E     LCALL   ?C?LSTXDATA
                                           ; SOURCE LINE # 780
17BE E4                CLR     A
17BF FF                MOV     R7,A
17C0 FE                MOV     R6,A
17C1 FD                MOV     R5,A
17C2 FC                MOV     R4,A
17C3 900000      R     MOV     DPTR,#aux_int
17C6 E0                MOVX    A,@DPTR
17C7 F8                MOV     R0,A
C51 COMPILER V9.51   COMMAND_PROCESSING                                                    02/07/2017 16:12:02 PAGE 104 

17C8 A3                INC     DPTR
17C9 E0                MOVX    A,@DPTR
17CA F9                MOV     R1,A
17CB A3                INC     DPTR
17CC E0                MOVX    A,@DPTR
17CD FA                MOV     R2,A
17CE A3                INC     DPTR
17CF E0                MOVX    A,@DPTR
17D0 FB                MOV     R3,A
17D1 D3                SETB    C
17D2 120000      E     LCALL   ?C?SLCMP
17D5 5014              JNC     ?C0205
                                           ; SOURCE LINE # 781
17D7 900000      R     MOV     DPTR,#aux_int
17DA E0                MOVX    A,@DPTR
17DB FC                MOV     R4,A
17DC A3                INC     DPTR
17DD E0                MOVX    A,@DPTR
17DE FD                MOV     R5,A
17DF A3                INC     DPTR
17E0 E0                MOVX    A,@DPTR
17E1 FE                MOV     R6,A
17E2 A3                INC     DPTR
17E3 E0                MOVX    A,@DPTR
17E4 FF                MOV     R7,A
17E5 900000      E     MOV     DPTR,#g_mem+06EH
17E8 120000      E     LCALL   ?C?LSTXDATA
17EB         ?C0205:
                                           ; SOURCE LINE # 783
17EB 900000      E     MOV     DPTR,#g_rx+07H
17EE E0                MOVX    A,@DPTR
17EF FC                MOV     R4,A
17F0 A3                INC     DPTR
17F1 E0                MOVX    A,@DPTR
17F2 FD                MOV     R5,A
17F3 A3                INC     DPTR
17F4 E0                MOVX    A,@DPTR
17F5 FE                MOV     R6,A
17F6 A3                INC     DPTR
17F7 E0                MOVX    A,@DPTR
17F8 FF                MOV     R7,A
17F9 900000      R     MOV     DPTR,#aux_int
17FC 120000      E     LCALL   ?C?LSTXDATA
                                           ; SOURCE LINE # 784
17FF E4                CLR     A
1800 FF                MOV     R7,A
1801 FE                MOV     R6,A
1802 FD                MOV     R5,A
1803 FC                MOV     R4,A
1804 900000      R     MOV     DPTR,#aux_int
1807 E0                MOVX    A,@DPTR
1808 F8                MOV     R0,A
1809 A3                INC     DPTR
180A E0                MOVX    A,@DPTR
180B F9                MOV     R1,A
180C A3                INC     DPTR
180D E0                MOVX    A,@DPTR
180E FA                MOV     R2,A
180F A3                INC     DPTR
1810 E0                MOVX    A,@DPTR
1811 FB                MOV     R3,A
1812 C3                CLR     C
C51 COMPILER V9.51   COMMAND_PROCESSING                                                    02/07/2017 16:12:02 PAGE 105 

1813 120000      E     LCALL   ?C?SLCMP
1816 5003              JNC     $ + 5H
1818 020000      R     LJMP    ?C0224
                                           ; SOURCE LINE # 785
181B 900000      R     MOV     DPTR,#aux_int
181E E0                MOVX    A,@DPTR
181F FC                MOV     R4,A
1820 A3                INC     DPTR
1821 E0                MOVX    A,@DPTR
1822 FD                MOV     R5,A
1823 A3                INC     DPTR
1824 E0                MOVX    A,@DPTR
1825 FE                MOV     R6,A
1826 A3                INC     DPTR
1827 E0                MOVX    A,@DPTR
1828 FF                MOV     R7,A
1829 900000      E     MOV     DPTR,#g_mem+072H
182C 120000      E     LCALL   ?C?LSTXDATA
                                           ; SOURCE LINE # 787
182F 22                RET     
                                           ; SOURCE LINE # 790
1830         ?C0207:
                                           ; SOURCE LINE # 791
1830 900000      E     MOV     DPTR,#g_rx+03H
1833 E0                MOVX    A,@DPTR
1834 FF                MOV     R7,A
1835 A3                INC     DPTR
1836 E0                MOVX    A,@DPTR
1837 900000      E     MOV     DPTR,#g_mem+032H
183A CF                XCH     A,R7
183B F0                MOVX    @DPTR,A
183C A3                INC     DPTR
183D EF                MOV     A,R7
183E F0                MOVX    @DPTR,A
                                           ; SOURCE LINE # 792
183F 22                RET     
                                           ; SOURCE LINE # 795
1840         ?C0208:
                                           ; SOURCE LINE # 796
1840 900000      E     MOV     DPTR,#g_rx+03H
1843 E0                MOVX    A,@DPTR
1844 900000      E     MOV     DPTR,#g_mem+07AH
1847 F0                MOVX    @DPTR,A
                                           ; SOURCE LINE # 797
1848 22                RET     
                                           ; SOURCE LINE # 800
1849         ?C0209:
                                           ; SOURCE LINE # 801
1849 900000      E     MOV     DPTR,#g_rx+03H
184C E0                MOVX    A,@DPTR
184D FF                MOV     R7,A
184E A3                INC     DPTR
184F E0                MOVX    A,@DPTR
1850 900000      E     MOV     DPTR,#g_mem+076H
1853 CF                XCH     A,R7
1854 F0                MOVX    @DPTR,A
1855 A3                INC     DPTR
1856 EF                MOV     A,R7
1857 F0                MOVX    @DPTR,A
                                           ; SOURCE LINE # 802
1858 900000      E     MOV     DPTR,#g_rx+05H
185B E0                MOVX    A,@DPTR
C51 COMPILER V9.51   COMMAND_PROCESSING                                                    02/07/2017 16:12:02 PAGE 106 

185C FF                MOV     R7,A
185D A3                INC     DPTR
185E E0                MOVX    A,@DPTR
185F 900000      E     MOV     DPTR,#g_mem+078H
1862 CF                XCH     A,R7
1863 F0                MOVX    @DPTR,A
1864 A3                INC     DPTR
1865 EF                MOV     A,R7
1866 F0                MOVX    @DPTR,A
                                           ; SOURCE LINE # 803
1867 22                RET     
                                           ; SOURCE LINE # 806
1868         ?C0210:
                                           ; SOURCE LINE # 807
1868 900000      E     MOV     DPTR,#g_rx+03H
186B E0                MOVX    A,@DPTR
186C FC                MOV     R4,A
186D A3                INC     DPTR
186E E0                MOVX    A,@DPTR
186F FD                MOV     R5,A
1870 A3                INC     DPTR
1871 E0                MOVX    A,@DPTR
1872 FE                MOV     R6,A
1873 A3                INC     DPTR
1874 E0                MOVX    A,@DPTR
1875 FF                MOV     R7,A
1876 900000      E     MOV     DPTR,#g_mem+07BH
1879 120000      E     LCALL   ?C?LSTXDATA
                                           ; SOURCE LINE # 808
187C 900000      E     MOV     DPTR,#g_rx+07H
187F E0                MOVX    A,@DPTR
1880 FC                MOV     R4,A
1881 A3                INC     DPTR
1882 E0                MOVX    A,@DPTR
1883 FD                MOV     R5,A
1884 A3                INC     DPTR
1885 E0                MOVX    A,@DPTR
1886 FE                MOV     R6,A
1887 A3                INC     DPTR
1888 E0                MOVX    A,@DPTR
1889 FF                MOV     R7,A
188A 900000      E     MOV     DPTR,#g_mem+07FH
188D 120000      E     LCALL   ?C?LSTXDATA
                                           ; SOURCE LINE # 809
1890 22                RET     
                                           ; SOURCE LINE # 812
1891         ?C0211:
                                           ; SOURCE LINE # 813
1891 900000      E     MOV     DPTR,#g_rx+03H
1894 E0                MOVX    A,@DPTR
1895 900000      E     MOV     DPTR,#g_mem+083H
1898 F0                MOVX    @DPTR,A
                                           ; SOURCE LINE # 814
1899 22                RET     
                                           ; SOURCE LINE # 817
189A         ?C0212:
                                           ; SOURCE LINE # 818
189A 900000      E     MOV     DPTR,#g_rx+03H
189D E0                MOVX    A,@DPTR
189E 900000      R     MOV     DPTR,#aux_uchar
18A1 F0                MOVX    @DPTR,A
                                           ; SOURCE LINE # 819
C51 COMPILER V9.51   COMMAND_PROCESSING                                                    02/07/2017 16:12:02 PAGE 107 

18A2 6007              JZ      ?C0213
                                           ; SOURCE LINE # 820
18A4 900000      E     MOV     DPTR,#g_mem+084H
18A7 7401              MOV     A,#01H
18A9 F0                MOVX    @DPTR,A
                                           ; SOURCE LINE # 821
18AA 22                RET     
18AB         ?C0213:
                                           ; SOURCE LINE # 822
18AB E4                CLR     A
18AC 900000      E     MOV     DPTR,#g_mem+084H
18AF F0                MOVX    @DPTR,A
                                           ; SOURCE LINE # 823
                                           ; SOURCE LINE # 824
18B0 22                RET     
                                           ; SOURCE LINE # 827
18B1         ?C0215:
                                           ; SOURCE LINE # 828
18B1 900000      E     MOV     DPTR,#g_rx+03H
18B4 E0                MOVX    A,@DPTR
18B5 900000      E     MOV     DPTR,#g_mem+085H
18B8 F0                MOVX    @DPTR,A
                                           ; SOURCE LINE # 829
18B9 22                RET     
                                           ; SOURCE LINE # 832
18BA         ?C0216:
                                           ; SOURCE LINE # 833
18BA 900000      E     MOV     DPTR,#g_rx+03H
18BD E0                MOVX    A,@DPTR
18BE 900000      E     MOV     DPTR,#g_mem+09EH
18C1 F0                MOVX    @DPTR,A
                                           ; SOURCE LINE # 834
18C2 22                RET     
                                           ; SOURCE LINE # 837
18C3         ?C0217:
                                           ; SOURCE LINE # 838
18C3 E4                CLR     A
18C4 F500        R     MOV     i,A
18C6 F500        R     MOV     i+01H,A
18C8         ?C0218:
18C8 C3                CLR     C
18C9 E500        R     MOV     A,i+01H
18CB 9406              SUBB    A,#06H
18CD E500        R     MOV     A,i
18CF 9400              SUBB    A,#00H
18D1 4003              JC      $ + 5H
18D3 020000      R     LJMP    ?C0224
                                           ; SOURCE LINE # 839
18D6 E500        R     MOV     A,i+01H
18D8 AE00        R     MOV     R6,i
18DA 7802              MOV     R0,#02H
18DC         ?C0417:
18DC C3                CLR     C
18DD 33                RLC     A
18DE CE                XCH     A,R6
18DF 33                RLC     A
18E0 CE                XCH     A,R6
18E1 D8F9              DJNZ    R0,?C0417
18E3 2400        E     ADD     A,#LOW g_rx+03H
18E5 F582              MOV     DPL,A
18E7 7400        E     MOV     A,#HIGH g_rx+03H
18E9 3E                ADDC    A,R6
C51 COMPILER V9.51   COMMAND_PROCESSING                                                    02/07/2017 16:12:02 PAGE 108 

18EA F583              MOV     DPH,A
18EC E0                MOVX    A,@DPTR
18ED FC                MOV     R4,A
18EE A3                INC     DPTR
18EF E0                MOVX    A,@DPTR
18F0 FD                MOV     R5,A
18F1 A3                INC     DPTR
18F2 E0                MOVX    A,@DPTR
18F3 FE                MOV     R6,A
18F4 A3                INC     DPTR
18F5 E0                MOVX    A,@DPTR
18F6 FF                MOV     R7,A
18F7 C004              PUSH    AR4
18F9 C005              PUSH    AR5
18FB C006              PUSH    AR6
18FD C007              PUSH    AR7
18FF E500        R     MOV     A,i+01H
1901 AE00        R     MOV     R6,i
1903 7802              MOV     R0,#02H
1905         ?C0418:
1905 C3                CLR     C
1906 33                RLC     A
1907 CE                XCH     A,R6
1908 33                RLC     A
1909 CE                XCH     A,R6
190A D8F9              DJNZ    R0,?C0418
190C 2400        E     ADD     A,#LOW g_mem+086H
190E F582              MOV     DPL,A
1910 7400        E     MOV     A,#HIGH g_mem+086H
1912 3E                ADDC    A,R6
1913 F583              MOV     DPH,A
1915 D007              POP     AR7
1917 D006              POP     AR6
1919 D005              POP     AR5
191B D004              POP     AR4
191D 120000      E     LCALL   ?C?LSTXDATA
1920 0500        R     INC     i+01H
1922 E500        R     MOV     A,i+01H
1924 7002              JNZ     ?C0419
1926 0500        R     INC     i
1928         ?C0419:
1928 809E              SJMP    ?C0218
                                           ; SOURCE LINE # 840
                                           ; SOURCE LINE # 843
192A         ?C0221:
                                           ; SOURCE LINE # 844
192A 900000      E     MOV     DPTR,#g_rx+03H
192D E0                MOVX    A,@DPTR
192E FF                MOV     R7,A
192F A3                INC     DPTR
1930 E0                MOVX    A,@DPTR
1931 900000      E     MOV     DPTR,#g_mem+09FH
1934 CF                XCH     A,R7
1935 F0                MOVX    @DPTR,A
1936 A3                INC     DPTR
1937 EF                MOV     A,R7
1938 F0                MOVX    @DPTR,A
                                           ; SOURCE LINE # 845
1939 22                RET     
                                           ; SOURCE LINE # 848
193A         ?C0222:
                                           ; SOURCE LINE # 849
C51 COMPILER V9.51   COMMAND_PROCESSING                                                    02/07/2017 16:12:02 PAGE 109 

193A 900000      E     MOV     DPTR,#g_rx+03H
193D E0                MOVX    A,@DPTR
193E FF                MOV     R7,A
193F A3                INC     DPTR
1940 E0                MOVX    A,@DPTR
1941 900000      E     MOV     DPTR,#g_mem+0A1H
1944 CF                XCH     A,R7
1945 F0                MOVX    @DPTR,A
1946 A3                INC     DPTR
1947 EF                MOV     A,R7
1948 F0                MOVX    @DPTR,A
                                           ; SOURCE LINE # 850
1949 22                RET     
                                           ; SOURCE LINE # 853
194A         ?C0223:
                                           ; SOURCE LINE # 854
194A 900000      E     MOV     DPTR,#g_rx+03H
194D E0                MOVX    A,@DPTR
194E FF                MOV     R7,A
194F A3                INC     DPTR
1950 E0                MOVX    A,@DPTR
1951 900000      E     MOV     DPTR,#g_mem+0A3H
1954 CF                XCH     A,R7
1955 F0                MOVX    @DPTR,A
1956 A3                INC     DPTR
1957 EF                MOV     A,R7
1958 F0                MOVX    @DPTR,A
                                           ; SOURCE LINE # 855
1959 900000      E     MOV     DPTR,#g_rx+05H
195C E0                MOVX    A,@DPTR
195D FF                MOV     R7,A
195E A3                INC     DPTR
195F E0                MOVX    A,@DPTR
1960 900000      E     MOV     DPTR,#g_mem+0A5H
1963 CF                XCH     A,R7
1964 F0                MOVX    @DPTR,A
1965 A3                INC     DPTR
1966 EF                MOV     A,R7
1967 F0                MOVX    @DPTR,A
                                           ; SOURCE LINE # 856
                                           ; SOURCE LINE # 858
                                           ; SOURCE LINE # 859
1968         ?C0224:
1968 22                RET     
             ; FUNCTION _get_param_list (END)

             ; FUNCTION _infoPrepare (BEGIN)
                                           ; SOURCE LINE # 865
0000 900000      R     MOV     DPTR,#info_string
0003 EB                MOV     A,R3
0004 F0                MOVX    @DPTR,A
0005 A3                INC     DPTR
0006 EA                MOV     A,R2
0007 F0                MOVX    @DPTR,A
0008 A3                INC     DPTR
0009 E9                MOV     A,R1
000A F0                MOVX    @DPTR,A
                                           ; SOURCE LINE # 866
                                           ; SOURCE LINE # 871
000B 900000      R     MOV     DPTR,#info_string
000E E0                MOVX    A,@DPTR
000F FB                MOV     R3,A
C51 COMPILER V9.51   COMMAND_PROCESSING                                                    02/07/2017 16:12:02 PAGE 110 

0010 A3                INC     DPTR
0011 E0                MOVX    A,@DPTR
0012 FA                MOV     R2,A
0013 A3                INC     DPTR
0014 E0                MOVX    A,@DPTR
0015 F8                MOV     R0,A
0016 AC02              MOV     R4,AR2
0018 AD03              MOV     R5,AR3
001A 7BFF              MOV     R3,#0FFH
001C 7A00        R     MOV     R2,#HIGH ?SC_152
001E 7900        R     MOV     R1,#LOW ?SC_152
0020 120000      E     LCALL   ?C?STRCPYAMD
                                           ; SOURCE LINE # 872
0023 900000      E     MOV     DPTR,#?_strcat?BYTE+03H
0026 74FF              MOV     A,#0FFH
0028 F0                MOVX    @DPTR,A
0029 A3                INC     DPTR
002A 7400        R     MOV     A,#HIGH ?SC_153
002C F0                MOVX    @DPTR,A
002D A3                INC     DPTR
002E 7400        R     MOV     A,#LOW ?SC_153
0030 F0                MOVX    @DPTR,A
0031 900000      R     MOV     DPTR,#info_string
0034 E0                MOVX    A,@DPTR
0035 FB                MOV     R3,A
0036 A3                INC     DPTR
0037 E0                MOVX    A,@DPTR
0038 FA                MOV     R2,A
0039 A3                INC     DPTR
003A E0                MOVX    A,@DPTR
003B F9                MOV     R1,A
003C 120000      E     LCALL   _strcat
                                           ; SOURCE LINE # 873
003F 900000      E     MOV     DPTR,#?_strcat?BYTE+03H
0042 74FF              MOV     A,#0FFH
0044 F0                MOVX    @DPTR,A
0045 A3                INC     DPTR
0046 7400        R     MOV     A,#HIGH ?SC_156
0048 F0                MOVX    @DPTR,A
0049 A3                INC     DPTR
004A 7400        R     MOV     A,#LOW ?SC_156
004C F0                MOVX    @DPTR,A
004D 900000      R     MOV     DPTR,#info_string
0050 E0                MOVX    A,@DPTR
0051 FB                MOV     R3,A
0052 A3                INC     DPTR
0053 E0                MOVX    A,@DPTR
0054 FA                MOV     R2,A
0055 A3                INC     DPTR
0056 E0                MOVX    A,@DPTR
0057 F9                MOV     R1,A
0058 120000      E     LCALL   _strcat
                                           ; SOURCE LINE # 874
005B 900000      E     MOV     DPTR,#?_strcat?BYTE+03H
005E 74FF              MOV     A,#0FFH
0060 F0                MOVX    @DPTR,A
0061 A3                INC     DPTR
0062 7400        R     MOV     A,#HIGH ?SC_175
0064 F0                MOVX    @DPTR,A
0065 A3                INC     DPTR
0066 7400        R     MOV     A,#LOW ?SC_175
0068 F0                MOVX    @DPTR,A
C51 COMPILER V9.51   COMMAND_PROCESSING                                                    02/07/2017 16:12:02 PAGE 111 

0069 900000      R     MOV     DPTR,#info_string
006C E0                MOVX    A,@DPTR
006D FB                MOV     R3,A
006E A3                INC     DPTR
006F E0                MOVX    A,@DPTR
0070 FA                MOV     R2,A
0071 A3                INC     DPTR
0072 E0                MOVX    A,@DPTR
0073 F9                MOV     R1,A
0074 120000      E     LCALL   _strcat
                                           ; SOURCE LINE # 875
0077 900000      E     MOV     DPTR,#?_strcat?BYTE+03H
007A 74FF              MOV     A,#0FFH
007C F0                MOVX    @DPTR,A
007D A3                INC     DPTR
007E 7400        R     MOV     A,#HIGH ?SC_198
0080 F0                MOVX    @DPTR,A
0081 A3                INC     DPTR
0082 7400        R     MOV     A,#LOW ?SC_198
0084 F0                MOVX    @DPTR,A
0085 900000      R     MOV     DPTR,#info_string
0088 E0                MOVX    A,@DPTR
0089 FB                MOV     R3,A
008A A3                INC     DPTR
008B E0                MOVX    A,@DPTR
008C FA                MOV     R2,A
008D A3                INC     DPTR
008E E0                MOVX    A,@DPTR
008F F9                MOV     R1,A
0090 120000      E     LCALL   _strcat
                                           ; SOURCE LINE # 877
0093 900000      E     MOV     DPTR,#?_strcat?BYTE+03H
0096 74FF              MOV     A,#0FFH
0098 F0                MOVX    @DPTR,A
0099 A3                INC     DPTR
009A 7400        R     MOV     A,#HIGH ?SC_204
009C F0                MOVX    @DPTR,A
009D A3                INC     DPTR
009E 7400        R     MOV     A,#LOW ?SC_204
00A0 F0                MOVX    @DPTR,A
00A1 900000      R     MOV     DPTR,#info_string
00A4 E0                MOVX    A,@DPTR
00A5 FB                MOV     R3,A
00A6 A3                INC     DPTR
00A7 E0                MOVX    A,@DPTR
00A8 FA                MOV     R2,A
00A9 A3                INC     DPTR
00AA E0                MOVX    A,@DPTR
00AB F9                MOV     R1,A
00AC 120000      E     LCALL   _strcat
                                           ; SOURCE LINE # 878
00AF 900000      E     MOV     DPTR,#?_sprintf?BYTE+03H
00B2 74FF              MOV     A,#0FFH
00B4 F0                MOVX    @DPTR,A
00B5 A3                INC     DPTR
00B6 7400        R     MOV     A,#HIGH ?SC_218
00B8 F0                MOVX    @DPTR,A
00B9 A3                INC     DPTR
00BA 7400        R     MOV     A,#LOW ?SC_218
00BC F0                MOVX    @DPTR,A
00BD 900000      E     MOV     DPTR,#c_mem+01H
00C0 E0                MOVX    A,@DPTR
C51 COMPILER V9.51   COMMAND_PROCESSING                                                    02/07/2017 16:12:02 PAGE 112 

00C1 FF                MOV     R7,A
00C2 900000      E     MOV     DPTR,#?_sprintf?BYTE+06H
00C5 E4                CLR     A
00C6 F0                MOVX    @DPTR,A
00C7 A3                INC     DPTR
00C8 EF                MOV     A,R7
00C9 F0                MOVX    @DPTR,A
00CA 7B01              MOV     R3,#01H
00CC 7A00        R     MOV     R2,#HIGH str
00CE 7900        R     MOV     R1,#LOW str
00D0 120000      E     LCALL   _sprintf
                                           ; SOURCE LINE # 879
00D3 900000      E     MOV     DPTR,#?_strcat?BYTE+03H
00D6 7401              MOV     A,#01H
00D8 F0                MOVX    @DPTR,A
00D9 A3                INC     DPTR
00DA 7400        R     MOV     A,#HIGH str
00DC F0                MOVX    @DPTR,A
00DD A3                INC     DPTR
00DE 7400        R     MOV     A,#LOW str
00E0 F0                MOVX    @DPTR,A
00E1 900000      R     MOV     DPTR,#info_string
00E4 E0                MOVX    A,@DPTR
00E5 FB                MOV     R3,A
00E6 A3                INC     DPTR
00E7 E0                MOVX    A,@DPTR
00E8 FA                MOV     R2,A
00E9 A3                INC     DPTR
00EA E0                MOVX    A,@DPTR
00EB F9                MOV     R1,A
00EC 120000      E     LCALL   _strcat
                                           ; SOURCE LINE # 880
00EF 900000      E     MOV     DPTR,#?_strcat?BYTE+03H
00F2 74FF              MOV     A,#0FFH
00F4 F0                MOVX    @DPTR,A
00F5 A3                INC     DPTR
00F6 7400        R     MOV     A,#HIGH ?SC_227
00F8 F0                MOVX    @DPTR,A
00F9 A3                INC     DPTR
00FA 7400        R     MOV     A,#LOW ?SC_227
00FC F0                MOVX    @DPTR,A
00FD 900000      R     MOV     DPTR,#info_string
0100 E0                MOVX    A,@DPTR
0101 FB                MOV     R3,A
0102 A3                INC     DPTR
0103 E0                MOVX    A,@DPTR
0104 FA                MOV     R2,A
0105 A3                INC     DPTR
0106 E0                MOVX    A,@DPTR
0107 F9                MOV     R1,A
0108 120000      E     LCALL   _strcat
                                           ; SOURCE LINE # 881
010B 900000      E     MOV     DPTR,#c_mem+09EH
010E E0                MOVX    A,@DPTR
010F B4011E            CJNE    A,#01H,?C0225
                                           ; SOURCE LINE # 882
0112 900000      E     MOV     DPTR,#?_strcat?BYTE+03H
0115 74FF              MOV     A,#0FFH
0117 F0                MOVX    @DPTR,A
0118 A3                INC     DPTR
0119 7400        R     MOV     A,#HIGH ?SC_254
011B F0                MOVX    @DPTR,A
C51 COMPILER V9.51   COMMAND_PROCESSING                                                    02/07/2017 16:12:02 PAGE 113 

011C A3                INC     DPTR
011D 7400        R     MOV     A,#LOW ?SC_254
011F F0                MOVX    @DPTR,A
0120 900000      R     MOV     DPTR,#info_string
0123 E0                MOVX    A,@DPTR
0124 FB                MOV     R3,A
0125 A3                INC     DPTR
0126 E0                MOVX    A,@DPTR
0127 FA                MOV     R2,A
0128 A3                INC     DPTR
0129 E0                MOVX    A,@DPTR
012A F9                MOV     R1,A
012B 120000      E     LCALL   _strcat
012E 801C              SJMP    ?C0226
0130         ?C0225:
                                           ; SOURCE LINE # 884
0130 900000      E     MOV     DPTR,#?_strcat?BYTE+03H
0133 74FF              MOV     A,#0FFH
0135 F0                MOVX    @DPTR,A
0136 A3                INC     DPTR
0137 7400        R     MOV     A,#HIGH ?SC_259
0139 F0                MOVX    @DPTR,A
013A A3                INC     DPTR
013B 7400        R     MOV     A,#LOW ?SC_259
013D F0                MOVX    @DPTR,A
013E 900000      R     MOV     DPTR,#info_string
0141 E0                MOVX    A,@DPTR
0142 FB                MOV     R3,A
0143 A3                INC     DPTR
0144 E0                MOVX    A,@DPTR
0145 FA                MOV     R2,A
0146 A3                INC     DPTR
0147 E0                MOVX    A,@DPTR
0148 F9                MOV     R1,A
0149 120000      E     LCALL   _strcat
014C         ?C0226:
                                           ; SOURCE LINE # 886
014C 900000      E     MOV     DPTR,#?_sprintf?BYTE+03H
014F 74FF              MOV     A,#0FFH
0151 F0                MOVX    @DPTR,A
0152 A3                INC     DPTR
0153 7400        R     MOV     A,#HIGH ?SC_263
0155 F0                MOVX    @DPTR,A
0156 A3                INC     DPTR
0157 7400        R     MOV     A,#LOW ?SC_263
0159 F0                MOVX    @DPTR,A
015A 900000      E     MOV     DPTR,#dev_pwm_limit
015D E0                MOVX    A,@DPTR
015E FF                MOV     R7,A
015F 900000      E     MOV     DPTR,#?_sprintf?BYTE+06H
0162 E4                CLR     A
0163 F0                MOVX    @DPTR,A
0164 A3                INC     DPTR
0165 EF                MOV     A,R7
0166 F0                MOVX    @DPTR,A
0167 7B01              MOV     R3,#01H
0169 7A00        R     MOV     R2,#HIGH str
016B 7900        R     MOV     R1,#LOW str
016D 120000      E     LCALL   _sprintf
                                           ; SOURCE LINE # 887
0170 900000      E     MOV     DPTR,#?_strcat?BYTE+03H
0173 7401              MOV     A,#01H
C51 COMPILER V9.51   COMMAND_PROCESSING                                                    02/07/2017 16:12:02 PAGE 114 

0175 F0                MOVX    @DPTR,A
0176 A3                INC     DPTR
0177 7400        R     MOV     A,#HIGH str
0179 F0                MOVX    @DPTR,A
017A A3                INC     DPTR
017B 7400        R     MOV     A,#LOW str
017D F0                MOVX    @DPTR,A
017E 900000      R     MOV     DPTR,#info_string
0181 E0                MOVX    A,@DPTR
0182 FB                MOV     R3,A
0183 A3                INC     DPTR
0184 E0                MOVX    A,@DPTR
0185 FA                MOV     R2,A
0186 A3                INC     DPTR
0187 E0                MOVX    A,@DPTR
0188 F9                MOV     R1,A
0189 120000      E     LCALL   _strcat
                                           ; SOURCE LINE # 888
018C 900000      E     MOV     DPTR,#?_strcat?BYTE+03H
018F 74FF              MOV     A,#0FFH
0191 F0                MOVX    @DPTR,A
0192 A3                INC     DPTR
0193 7400        R     MOV     A,#HIGH ?SC_153
0195 F0                MOVX    @DPTR,A
0196 A3                INC     DPTR
0197 7400        R     MOV     A,#LOW ?SC_153
0199 F0                MOVX    @DPTR,A
019A 900000      R     MOV     DPTR,#info_string
019D E0                MOVX    A,@DPTR
019E FB                MOV     R3,A
019F A3                INC     DPTR
01A0 E0                MOVX    A,@DPTR
01A1 FA                MOV     R2,A
01A2 A3                INC     DPTR
01A3 E0                MOVX    A,@DPTR
01A4 F9                MOV     R1,A
01A5 120000      E     LCALL   _strcat
                                           ; SOURCE LINE # 890
01A8 900000      E     MOV     DPTR,#?_strcat?BYTE+03H
01AB 74FF              MOV     A,#0FFH
01AD F0                MOVX    @DPTR,A
01AE A3                INC     DPTR
01AF 7400        R     MOV     A,#HIGH ?SC_279
01B1 F0                MOVX    @DPTR,A
01B2 A3                INC     DPTR
01B3 7400        R     MOV     A,#LOW ?SC_279
01B5 F0                MOVX    @DPTR,A
01B6 900000      R     MOV     DPTR,#info_string
01B9 E0                MOVX    A,@DPTR
01BA FB                MOV     R3,A
01BB A3                INC     DPTR
01BC E0                MOVX    A,@DPTR
01BD FA                MOV     R2,A
01BE A3                INC     DPTR
01BF E0                MOVX    A,@DPTR
01C0 F9                MOV     R1,A
01C1 120000      E     LCALL   _strcat
                                           ; SOURCE LINE # 891
01C4 900000      E     MOV     DPTR,#?_strcat?BYTE+03H
01C7 74FF              MOV     A,#0FFH
01C9 F0                MOVX    @DPTR,A
01CA A3                INC     DPTR
C51 COMPILER V9.51   COMMAND_PROCESSING                                                    02/07/2017 16:12:02 PAGE 115 

01CB 7400        R     MOV     A,#HIGH ?SC_292
01CD F0                MOVX    @DPTR,A
01CE A3                INC     DPTR
01CF 7400        R     MOV     A,#LOW ?SC_292
01D1 F0                MOVX    @DPTR,A
01D2 900000      R     MOV     DPTR,#info_string
01D5 E0                MOVX    A,@DPTR
01D6 FB                MOV     R3,A
01D7 A3                INC     DPTR
01D8 E0                MOVX    A,@DPTR
01D9 FA                MOV     R2,A
01DA A3                INC     DPTR
01DB E0                MOVX    A,@DPTR
01DC F9                MOV     R1,A
01DD 120000      E     LCALL   _strcat
                                           ; SOURCE LINE # 893
01E0 E4                CLR     A
01E1 F500        R     MOV     i,A
01E3 F500        R     MOV     i+01H,A
01E5         ?C0227:
01E5 C3                CLR     C
01E6 E500        R     MOV     A,i+01H
01E8 9402              SUBB    A,#02H
01EA E500        R     MOV     A,i
01EC 6480              XRL     A,#080H
01EE 9480              SUBB    A,#080H
01F0 5079              JNC     ?C0228
                                           ; SOURCE LINE # 894
01F2 900000      E     MOV     DPTR,#?_sprintf?BYTE+03H
01F5 74FF              MOV     A,#0FFH
01F7 F0                MOVX    @DPTR,A
01F8 A3                INC     DPTR
01F9 7400        R     MOV     A,#HIGH ?SC_311
01FB F0                MOVX    @DPTR,A
01FC A3                INC     DPTR
01FD 7400        R     MOV     A,#LOW ?SC_311
01FF F0                MOVX    @DPTR,A
0200 E500        R     MOV     A,i+01H
0202 AE00        R     MOV     R6,i
0204 7802              MOV     R0,#02H
0206         ?C0420:
0206 C3                CLR     C
0207 33                RLC     A
0208 CE                XCH     A,R6
0209 33                RLC     A
020A CE                XCH     A,R6
020B D8F9              DJNZ    R0,?C0420
020D 2400        E     ADD     A,#LOW g_refOld
020F F582              MOV     DPL,A
0211 7400        E     MOV     A,#HIGH g_refOld
0213 3E                ADDC    A,R6
0214 F583              MOV     DPH,A
0216 E0                MOVX    A,@DPTR
0217 FC                MOV     R4,A
0218 A3                INC     DPTR
0219 E0                MOVX    A,@DPTR
021A FD                MOV     R5,A
021B A3                INC     DPTR
021C E0                MOVX    A,@DPTR
021D FE                MOV     R6,A
021E A3                INC     DPTR
021F E0                MOVX    A,@DPTR
C51 COMPILER V9.51   COMMAND_PROCESSING                                                    02/07/2017 16:12:02 PAGE 116 

0220 FF                MOV     R7,A
0221 7400        E     MOV     A,#LOW c_mem+037H
0223 2500        R     ADD     A,i+01H
0225 F582              MOV     DPL,A
0227 7400        E     MOV     A,#HIGH c_mem+037H
0229 3500        R     ADDC    A,i
022B F583              MOV     DPH,A
022D E0                MOVX    A,@DPTR
022E F9                MOV     R1,A
022F F8                MOV     R0,A
0230 120000      E     LCALL   ?C?SLSHR
0233 900000      E     MOV     DPTR,#?_sprintf?BYTE+06H
0236 EE                MOV     A,R6
0237 F0                MOVX    @DPTR,A
0238 A3                INC     DPTR
0239 EF                MOV     A,R7
023A F0                MOVX    @DPTR,A
023B 7B01              MOV     R3,#01H
023D 7A00        R     MOV     R2,#HIGH str
023F 7900        R     MOV     R1,#LOW str
0241 120000      E     LCALL   _sprintf
                                           ; SOURCE LINE # 895
0244 900000      E     MOV     DPTR,#?_strcat?BYTE+03H
0247 7401              MOV     A,#01H
0249 F0                MOVX    @DPTR,A
024A A3                INC     DPTR
024B 7400        R     MOV     A,#HIGH str
024D F0                MOVX    @DPTR,A
024E A3                INC     DPTR
024F 7400        R     MOV     A,#LOW str
0251 F0                MOVX    @DPTR,A
0252 900000      R     MOV     DPTR,#info_string
0255 E0                MOVX    A,@DPTR
0256 FB                MOV     R3,A
0257 A3                INC     DPTR
0258 E0                MOVX    A,@DPTR
0259 FA                MOV     R2,A
025A A3                INC     DPTR
025B E0                MOVX    A,@DPTR
025C F9                MOV     R1,A
025D 120000      E     LCALL   _strcat
                                           ; SOURCE LINE # 896
0260 0500        R     INC     i+01H
0262 E500        R     MOV     A,i+01H
0264 7002              JNZ     ?C0421
0266 0500        R     INC     i
0268         ?C0421:
0268 020000      R     LJMP    ?C0227
026B         ?C0228:
                                           ; SOURCE LINE # 897
026B 900000      E     MOV     DPTR,#?_strcat?BYTE+03H
026E 74FF              MOV     A,#0FFH
0270 F0                MOVX    @DPTR,A
0271 A3                INC     DPTR
0272 7400        R     MOV     A,#HIGH ?SC_153
0274 F0                MOVX    @DPTR,A
0275 A3                INC     DPTR
0276 7400        R     MOV     A,#LOW ?SC_153
0278 F0                MOVX    @DPTR,A
0279 900000      R     MOV     DPTR,#info_string
027C E0                MOVX    A,@DPTR
027D FB                MOV     R3,A
C51 COMPILER V9.51   COMMAND_PROCESSING                                                    02/07/2017 16:12:02 PAGE 117 

027E A3                INC     DPTR
027F E0                MOVX    A,@DPTR
0280 FA                MOV     R2,A
0281 A3                INC     DPTR
0282 E0                MOVX    A,@DPTR
0283 F9                MOV     R1,A
0284 120000      E     LCALL   _strcat
                                           ; SOURCE LINE # 899
0287 900000      E     MOV     DPTR,#?_sprintf?BYTE+03H
028A 74FF              MOV     A,#0FFH
028C F0                MOVX    @DPTR,A
028D A3                INC     DPTR
028E 7400        R     MOV     A,#HIGH ?SC_315
0290 F0                MOVX    @DPTR,A
0291 A3                INC     DPTR
0292 7400        R     MOV     A,#LOW ?SC_315
0294 F0                MOVX    @DPTR,A
0295 7B01              MOV     R3,#01H
0297 7A00        R     MOV     R2,#HIGH str
0299 7900        R     MOV     R1,#LOW str
029B 120000      E     LCALL   _sprintf
                                           ; SOURCE LINE # 900
029E 900000      E     MOV     DPTR,#g_refOld+08H
02A1 E0                MOVX    A,@DPTR
02A2 5403              ANL     A,#03H
02A4 6019              JZ      ?C0230
                                           ; SOURCE LINE # 901
02A6 900000      E     MOV     DPTR,#?_strcat?BYTE+03H
02A9 74FF              MOV     A,#0FFH
02AB F0                MOVX    @DPTR,A
02AC A3                INC     DPTR
02AD 7400        R     MOV     A,#HIGH ?SC_331
02AF F0                MOVX    @DPTR,A
02B0 A3                INC     DPTR
02B1 7400        R     MOV     A,#LOW ?SC_331
02B3 F0                MOVX    @DPTR,A
02B4 7B01              MOV     R3,#01H
02B6 7A00        R     MOV     R2,#HIGH str
02B8 7900        R     MOV     R1,#LOW str
02BA 120000      E     LCALL   _strcat
                                           ; SOURCE LINE # 902
02BD 8017              SJMP    ?C0231
02BF         ?C0230:
                                           ; SOURCE LINE # 903
02BF 900000      E     MOV     DPTR,#?_strcat?BYTE+03H
02C2 74FF              MOV     A,#0FFH
02C4 F0                MOVX    @DPTR,A
02C5 A3                INC     DPTR
02C6 7400        R     MOV     A,#HIGH ?SC_337
02C8 F0                MOVX    @DPTR,A
02C9 A3                INC     DPTR
02CA 7400        R     MOV     A,#LOW ?SC_337
02CC F0                MOVX    @DPTR,A
02CD 7B01              MOV     R3,#01H
02CF 7A00        R     MOV     R2,#HIGH str
02D1 7900        R     MOV     R1,#LOW str
02D3 120000      E     LCALL   _strcat
                                           ; SOURCE LINE # 904
02D6         ?C0231:
                                           ; SOURCE LINE # 905
02D6 900000      E     MOV     DPTR,#?_strcat?BYTE+03H
02D9 7401              MOV     A,#01H
C51 COMPILER V9.51   COMMAND_PROCESSING                                                    02/07/2017 16:12:02 PAGE 118 

02DB F0                MOVX    @DPTR,A
02DC A3                INC     DPTR
02DD 7400        R     MOV     A,#HIGH str
02DF F0                MOVX    @DPTR,A
02E0 A3                INC     DPTR
02E1 7400        R     MOV     A,#LOW str
02E3 F0                MOVX    @DPTR,A
02E4 900000      R     MOV     DPTR,#info_string
02E7 E0                MOVX    A,@DPTR
02E8 FB                MOV     R3,A
02E9 A3                INC     DPTR
02EA E0                MOVX    A,@DPTR
02EB FA                MOV     R2,A
02EC A3                INC     DPTR
02ED E0                MOVX    A,@DPTR
02EE F9                MOV     R1,A
02EF 120000      E     LCALL   _strcat
                                           ; SOURCE LINE # 908
02F2 900000      E     MOV     DPTR,#?_strcat?BYTE+03H
02F5 74FF              MOV     A,#0FFH
02F7 F0                MOVX    @DPTR,A
02F8 A3                INC     DPTR
02F9 7400        R     MOV     A,#HIGH ?SC_342
02FB F0                MOVX    @DPTR,A
02FC A3                INC     DPTR
02FD 7400        R     MOV     A,#LOW ?SC_342
02FF F0                MOVX    @DPTR,A
0300 900000      R     MOV     DPTR,#info_string
0303 E0                MOVX    A,@DPTR
0304 FB                MOV     R3,A
0305 A3                INC     DPTR
0306 E0                MOVX    A,@DPTR
0307 FA                MOV     R2,A
0308 A3                INC     DPTR
0309 E0                MOVX    A,@DPTR
030A F9                MOV     R1,A
030B 120000      E     LCALL   _strcat
                                           ; SOURCE LINE # 909
030E 900000      E     MOV     DPTR,#?_strcat?BYTE+03H
0311 74FF              MOV     A,#0FFH
0313 F0                MOVX    @DPTR,A
0314 A3                INC     DPTR
0315 7400        R     MOV     A,#HIGH ?SC_364
0317 F0                MOVX    @DPTR,A
0318 A3                INC     DPTR
0319 7400        R     MOV     A,#LOW ?SC_364
031B F0                MOVX    @DPTR,A
031C 900000      R     MOV     DPTR,#info_string
031F E0                MOVX    A,@DPTR
0320 FB                MOV     R3,A
0321 A3                INC     DPTR
0322 E0                MOVX    A,@DPTR
0323 FA                MOV     R2,A
0324 A3                INC     DPTR
0325 E0                MOVX    A,@DPTR
0326 F9                MOV     R1,A
0327 120000      E     LCALL   _strcat
                                           ; SOURCE LINE # 910
032A E4                CLR     A
032B F500        R     MOV     i,A
032D F500        R     MOV     i+01H,A
032F         ?C0232:
C51 COMPILER V9.51   COMMAND_PROCESSING                                                    02/07/2017 16:12:02 PAGE 119 

032F C3                CLR     C
0330 E500        R     MOV     A,i+01H
0332 9404              SUBB    A,#04H
0334 E500        R     MOV     A,i
0336 6480              XRL     A,#080H
0338 9480              SUBB    A,#080H
033A 4003              JC      $ + 5H
033C 020000      R     LJMP    ?C0233
                                           ; SOURCE LINE # 912
033F 900000      E     MOV     DPTR,#?_sprintf?BYTE+03H
0342 74FF              MOV     A,#0FFH
0344 F0                MOVX    @DPTR,A
0345 A3                INC     DPTR
0346 7400        R     MOV     A,#HIGH ?SC_380
0348 F0                MOVX    @DPTR,A
0349 A3                INC     DPTR
034A 7400        R     MOV     A,#LOW ?SC_380
034C F0                MOVX    @DPTR,A
034D E500        R     MOV     A,i+01H
034F 2401              ADD     A,#01H
0351 900000      E     MOV     DPTR,#?_sprintf?BYTE+07H
0354 F0                MOVX    @DPTR,A
0355 E4                CLR     A
0356 3500        R     ADDC    A,i
0358 900000      E     MOV     DPTR,#?_sprintf?BYTE+06H
035B F0                MOVX    @DPTR,A
035C E500        R     MOV     A,i+01H
035E AE00        R     MOV     R6,i
0360 7802              MOV     R0,#02H
0362         ?C0422:
0362 C3                CLR     C
0363 33                RLC     A
0364 CE                XCH     A,R6
0365 33                RLC     A
0366 CE                XCH     A,R6
0367 D8F9              DJNZ    R0,?C0422
0369 2400        E     ADD     A,#LOW g_measOld+010H
036B F582              MOV     DPL,A
036D 7400        E     MOV     A,#HIGH g_measOld+010H
036F 3E                ADDC    A,R6
0370 F583              MOV     DPH,A
0372 E0                MOVX    A,@DPTR
0373 FC                MOV     R4,A
0374 A3                INC     DPTR
0375 E0                MOVX    A,@DPTR
0376 FD                MOV     R5,A
0377 A3                INC     DPTR
0378 E0                MOVX    A,@DPTR
0379 FE                MOV     R6,A
037A A3                INC     DPTR
037B E0                MOVX    A,@DPTR
037C FF                MOV     R7,A
037D 7400        E     MOV     A,#LOW c_mem+037H
037F 2500        R     ADD     A,i+01H
0381 F582              MOV     DPL,A
0383 7400        E     MOV     A,#HIGH c_mem+037H
0385 3500        R     ADDC    A,i
0387 F583              MOV     DPH,A
0389 E0                MOVX    A,@DPTR
038A F9                MOV     R1,A
038B F8                MOV     R0,A
038C 120000      E     LCALL   ?C?SLSHR
C51 COMPILER V9.51   COMMAND_PROCESSING                                                    02/07/2017 16:12:02 PAGE 120 

038F 900000      E     MOV     DPTR,#?_sprintf?BYTE+08H
0392 EE                MOV     A,R6
0393 F0                MOVX    @DPTR,A
0394 A3                INC     DPTR
0395 EF                MOV     A,R7
0396 F0                MOVX    @DPTR,A
0397 7B01              MOV     R3,#01H
0399 7A00        R     MOV     R2,#HIGH str
039B 7900        R     MOV     R1,#LOW str
039D 120000      E     LCALL   _sprintf
                                           ; SOURCE LINE # 913
03A0 900000      E     MOV     DPTR,#?_strcat?BYTE+03H
03A3 7401              MOV     A,#01H
03A5 F0                MOVX    @DPTR,A
03A6 A3                INC     DPTR
03A7 7400        R     MOV     A,#HIGH str
03A9 F0                MOVX    @DPTR,A
03AA A3                INC     DPTR
03AB 7400        R     MOV     A,#LOW str
03AD F0                MOVX    @DPTR,A
03AE 900000      R     MOV     DPTR,#info_string
03B1 E0                MOVX    A,@DPTR
03B2 FB                MOV     R3,A
03B3 A3                INC     DPTR
03B4 E0                MOVX    A,@DPTR
03B5 FA                MOV     R2,A
03B6 A3                INC     DPTR
03B7 E0                MOVX    A,@DPTR
03B8 F9                MOV     R1,A
03B9 120000      E     LCALL   _strcat
                                           ; SOURCE LINE # 914
03BC 900000      E     MOV     DPTR,#?_strcat?BYTE+03H
03BF 74FF              MOV     A,#0FFH
03C1 F0                MOVX    @DPTR,A
03C2 A3                INC     DPTR
03C3 7400        R     MOV     A,#HIGH ?SC_153
03C5 F0                MOVX    @DPTR,A
03C6 A3                INC     DPTR
03C7 7400        R     MOV     A,#LOW ?SC_153
03C9 F0                MOVX    @DPTR,A
03CA 900000      R     MOV     DPTR,#info_string
03CD E0                MOVX    A,@DPTR
03CE FB                MOV     R3,A
03CF A3                INC     DPTR
03D0 E0                MOVX    A,@DPTR
03D1 FA                MOV     R2,A
03D2 A3                INC     DPTR
03D3 E0                MOVX    A,@DPTR
03D4 F9                MOV     R1,A
03D5 120000      E     LCALL   _strcat
                                           ; SOURCE LINE # 915
03D8 0500        R     INC     i+01H
03DA E500        R     MOV     A,i+01H
03DC 7002              JNZ     ?C0423
03DE 0500        R     INC     i
03E0         ?C0423:
03E0 020000      R     LJMP    ?C0232
03E3         ?C0233:
                                           ; SOURCE LINE # 916
03E3 900000      E     MOV     DPTR,#?_sprintf?BYTE+03H
03E6 74FF              MOV     A,#0FFH
03E8 F0                MOVX    @DPTR,A
C51 COMPILER V9.51   COMMAND_PROCESSING                                                    02/07/2017 16:12:02 PAGE 121 

03E9 A3                INC     DPTR
03EA 7400        R     MOV     A,#HIGH ?SC_389
03EC F0                MOVX    @DPTR,A
03ED A3                INC     DPTR
03EE 7400        R     MOV     A,#LOW ?SC_389
03F0 F0                MOVX    @DPTR,A
03F1 900000      E     MOV     DPTR,#dev_tension
03F4 E0                MOVX    A,@DPTR
03F5 FC                MOV     R4,A
03F6 A3                INC     DPTR
03F7 E0                MOVX    A,@DPTR
03F8 FD                MOV     R5,A
03F9 A3                INC     DPTR
03FA E0                MOVX    A,@DPTR
03FB FE                MOV     R6,A
03FC A3                INC     DPTR
03FD E0                MOVX    A,@DPTR
03FE FF                MOV     R7,A
03FF 900000      E     MOV     DPTR,#?_sprintf?BYTE+06H
0402 120000      E     LCALL   ?C?LSTXDATA
0405 7B01              MOV     R3,#01H
0407 7A00        R     MOV     R2,#HIGH str
0409 7900        R     MOV     R1,#LOW str
040B 120000      E     LCALL   _sprintf
                                           ; SOURCE LINE # 917
040E 900000      E     MOV     DPTR,#?_strcat?BYTE+03H
0411 7401              MOV     A,#01H
0413 F0                MOVX    @DPTR,A
0414 A3                INC     DPTR
0415 7400        R     MOV     A,#HIGH str
0417 F0                MOVX    @DPTR,A
0418 A3                INC     DPTR
0419 7400        R     MOV     A,#LOW str
041B F0                MOVX    @DPTR,A
041C 900000      R     MOV     DPTR,#info_string
041F E0                MOVX    A,@DPTR
0420 FB                MOV     R3,A
0421 A3                INC     DPTR
0422 E0                MOVX    A,@DPTR
0423 FA                MOV     R2,A
0424 A3                INC     DPTR
0425 E0                MOVX    A,@DPTR
0426 F9                MOV     R1,A
0427 120000      E     LCALL   _strcat
                                           ; SOURCE LINE # 918
042A 900000      E     MOV     DPTR,#?_strcat?BYTE+03H
042D 74FF              MOV     A,#0FFH
042F F0                MOVX    @DPTR,A
0430 A3                INC     DPTR
0431 7400        R     MOV     A,#HIGH ?SC_153
0433 F0                MOVX    @DPTR,A
0434 A3                INC     DPTR
0435 7400        R     MOV     A,#LOW ?SC_153
0437 F0                MOVX    @DPTR,A
0438 900000      R     MOV     DPTR,#info_string
043B E0                MOVX    A,@DPTR
043C FB                MOV     R3,A
043D A3                INC     DPTR
043E E0                MOVX    A,@DPTR
043F FA                MOV     R2,A
0440 A3                INC     DPTR
0441 E0                MOVX    A,@DPTR
C51 COMPILER V9.51   COMMAND_PROCESSING                                                    02/07/2017 16:12:02 PAGE 122 

0442 F9                MOV     R1,A
0443 120000      E     LCALL   _strcat
                                           ; SOURCE LINE # 920
0446 900000      E     MOV     DPTR,#?_sprintf?BYTE+03H
0449 74FF              MOV     A,#0FFH
044B F0                MOVX    @DPTR,A
044C A3                INC     DPTR
044D 7400        R     MOV     A,#HIGH ?SC_407
044F F0                MOVX    @DPTR,A
0450 A3                INC     DPTR
0451 7400        R     MOV     A,#LOW ?SC_407
0453 F0                MOVX    @DPTR,A
0454 900000      E     MOV     DPTR,#g_measOld+08H
0457 E0                MOVX    A,@DPTR
0458 FC                MOV     R4,A
0459 A3                INC     DPTR
045A E0                MOVX    A,@DPTR
045B FD                MOV     R5,A
045C A3                INC     DPTR
045D E0                MOVX    A,@DPTR
045E FE                MOV     R6,A
045F A3                INC     DPTR
0460 E0                MOVX    A,@DPTR
0461 FF                MOV     R7,A
0462 900000      E     MOV     DPTR,#?_sprintf?BYTE+06H
0465 120000      E     LCALL   ?C?LSTXDATA
0468 7B01              MOV     R3,#01H
046A 7A00        R     MOV     R2,#HIGH str
046C 7900        R     MOV     R1,#LOW str
046E 120000      E     LCALL   _sprintf
                                           ; SOURCE LINE # 921
0471 900000      E     MOV     DPTR,#?_strcat?BYTE+03H
0474 7401              MOV     A,#01H
0476 F0                MOVX    @DPTR,A
0477 A3                INC     DPTR
0478 7400        R     MOV     A,#HIGH str
047A F0                MOVX    @DPTR,A
047B A3                INC     DPTR
047C 7400        R     MOV     A,#LOW str
047E F0                MOVX    @DPTR,A
047F 900000      R     MOV     DPTR,#info_string
0482 E0                MOVX    A,@DPTR
0483 FB                MOV     R3,A
0484 A3                INC     DPTR
0485 E0                MOVX    A,@DPTR
0486 FA                MOV     R2,A
0487 A3                INC     DPTR
0488 E0                MOVX    A,@DPTR
0489 F9                MOV     R1,A
048A 120000      E     LCALL   _strcat
                                           ; SOURCE LINE # 922
048D 900000      E     MOV     DPTR,#?_strcat?BYTE+03H
0490 74FF              MOV     A,#0FFH
0492 F0                MOVX    @DPTR,A
0493 A3                INC     DPTR
0494 7400        R     MOV     A,#HIGH ?SC_153
0496 F0                MOVX    @DPTR,A
0497 A3                INC     DPTR
0498 7400        R     MOV     A,#LOW ?SC_153
049A F0                MOVX    @DPTR,A
049B 900000      R     MOV     DPTR,#info_string
049E E0                MOVX    A,@DPTR
C51 COMPILER V9.51   COMMAND_PROCESSING                                                    02/07/2017 16:12:02 PAGE 123 

049F FB                MOV     R3,A
04A0 A3                INC     DPTR
04A1 E0                MOVX    A,@DPTR
04A2 FA                MOV     R2,A
04A3 A3                INC     DPTR
04A4 E0                MOVX    A,@DPTR
04A5 F9                MOV     R1,A
04A6 120000      E     LCALL   _strcat
                                           ; SOURCE LINE # 924
04A9 900000      E     MOV     DPTR,#?_sprintf?BYTE+03H
04AC 74FF              MOV     A,#0FFH
04AE F0                MOVX    @DPTR,A
04AF A3                INC     DPTR
04B0 7400        R     MOV     A,#HIGH ?SC_427
04B2 F0                MOVX    @DPTR,A
04B3 A3                INC     DPTR
04B4 7400        R     MOV     A,#LOW ?SC_427
04B6 F0                MOVX    @DPTR,A
04B7 900000      E     MOV     DPTR,#g_measOld+0CH
04BA E0                MOVX    A,@DPTR
04BB FC                MOV     R4,A
04BC A3                INC     DPTR
04BD E0                MOVX    A,@DPTR
04BE FD                MOV     R5,A
04BF A3                INC     DPTR
04C0 E0                MOVX    A,@DPTR
04C1 FE                MOV     R6,A
04C2 A3                INC     DPTR
04C3 E0                MOVX    A,@DPTR
04C4 FF                MOV     R7,A
04C5 900000      E     MOV     DPTR,#?_sprintf?BYTE+06H
04C8 120000      E     LCALL   ?C?LSTXDATA
04CB 7B01              MOV     R3,#01H
04CD 7A00        R     MOV     R2,#HIGH str
04CF 7900        R     MOV     R1,#LOW str
04D1 120000      E     LCALL   _sprintf
                                           ; SOURCE LINE # 925
04D4 900000      E     MOV     DPTR,#?_strcat?BYTE+03H
04D7 7401              MOV     A,#01H
04D9 F0                MOVX    @DPTR,A
04DA A3                INC     DPTR
04DB 7400        R     MOV     A,#HIGH str
04DD F0                MOVX    @DPTR,A
04DE A3                INC     DPTR
04DF 7400        R     MOV     A,#LOW str
04E1 F0                MOVX    @DPTR,A
04E2 900000      R     MOV     DPTR,#info_string
04E5 E0                MOVX    A,@DPTR
04E6 FB                MOV     R3,A
04E7 A3                INC     DPTR
04E8 E0                MOVX    A,@DPTR
04E9 FA                MOV     R2,A
04EA A3                INC     DPTR
04EB E0                MOVX    A,@DPTR
04EC F9                MOV     R1,A
04ED 120000      E     LCALL   _strcat
                                           ; SOURCE LINE # 926
04F0 900000      E     MOV     DPTR,#?_strcat?BYTE+03H
04F3 74FF              MOV     A,#0FFH
04F5 F0                MOVX    @DPTR,A
04F6 A3                INC     DPTR
04F7 7400        R     MOV     A,#HIGH ?SC_153
C51 COMPILER V9.51   COMMAND_PROCESSING                                                    02/07/2017 16:12:02 PAGE 124 

04F9 F0                MOVX    @DPTR,A
04FA A3                INC     DPTR
04FB 7400        R     MOV     A,#LOW ?SC_153
04FD F0                MOVX    @DPTR,A
04FE 900000      R     MOV     DPTR,#info_string
0501 E0                MOVX    A,@DPTR
0502 FB                MOV     R3,A
0503 A3                INC     DPTR
0504 E0                MOVX    A,@DPTR
0505 FA                MOV     R2,A
0506 A3                INC     DPTR
0507 E0                MOVX    A,@DPTR
0508 F9                MOV     R1,A
0509 120000      E     LCALL   _strcat
                                           ; SOURCE LINE # 928
050C 900000      E     MOV     DPTR,#?_sprintf?BYTE+03H
050F 74FF              MOV     A,#0FFH
0511 F0                MOVX    @DPTR,A
0512 A3                INC     DPTR
0513 7400        R     MOV     A,#HIGH ?SC_447
0515 F0                MOVX    @DPTR,A
0516 A3                INC     DPTR
0517 7400        R     MOV     A,#LOW ?SC_447
0519 F0                MOVX    @DPTR,A
051A 900000      E     MOV     DPTR,#g_measOld+030H
051D E0                MOVX    A,@DPTR
051E FF                MOV     R7,A
051F A3                INC     DPTR
0520 E0                MOVX    A,@DPTR
0521 900000      E     MOV     DPTR,#?_sprintf?BYTE+06H
0524 CF                XCH     A,R7
0525 F0                MOVX    @DPTR,A
0526 A3                INC     DPTR
0527 EF                MOV     A,R7
0528 F0                MOVX    @DPTR,A
0529 900000      E     MOV     DPTR,#g_measOld+032H
052C E0                MOVX    A,@DPTR
052D FF                MOV     R7,A
052E A3                INC     DPTR
052F E0                MOVX    A,@DPTR
0530 900000      E     MOV     DPTR,#?_sprintf?BYTE+08H
0533 CF                XCH     A,R7
0534 F0                MOVX    @DPTR,A
0535 A3                INC     DPTR
0536 EF                MOV     A,R7
0537 F0                MOVX    @DPTR,A
0538 7B01              MOV     R3,#01H
053A 7A00        R     MOV     R2,#HIGH str
053C 7900        R     MOV     R1,#LOW str
053E 120000      E     LCALL   _sprintf
                                           ; SOURCE LINE # 929
0541 900000      E     MOV     DPTR,#?_strcat?BYTE+03H
0544 7401              MOV     A,#01H
0546 F0                MOVX    @DPTR,A
0547 A3                INC     DPTR
0548 7400        R     MOV     A,#HIGH str
054A F0                MOVX    @DPTR,A
054B A3                INC     DPTR
054C 7400        R     MOV     A,#LOW str
054E F0                MOVX    @DPTR,A
054F 900000      R     MOV     DPTR,#info_string
0552 E0                MOVX    A,@DPTR
C51 COMPILER V9.51   COMMAND_PROCESSING                                                    02/07/2017 16:12:02 PAGE 125 

0553 FB                MOV     R3,A
0554 A3                INC     DPTR
0555 E0                MOVX    A,@DPTR
0556 FA                MOV     R2,A
0557 A3                INC     DPTR
0558 E0                MOVX    A,@DPTR
0559 F9                MOV     R1,A
055A 120000      E     LCALL   _strcat
                                           ; SOURCE LINE # 930
055D 900000      E     MOV     DPTR,#?_strcat?BYTE+03H
0560 74FF              MOV     A,#0FFH
0562 F0                MOVX    @DPTR,A
0563 A3                INC     DPTR
0564 7400        R     MOV     A,#HIGH ?SC_153
0566 F0                MOVX    @DPTR,A
0567 A3                INC     DPTR
0568 7400        R     MOV     A,#LOW ?SC_153
056A F0                MOVX    @DPTR,A
056B 900000      R     MOV     DPTR,#info_string
056E E0                MOVX    A,@DPTR
056F FB                MOV     R3,A
0570 A3                INC     DPTR
0571 E0                MOVX    A,@DPTR
0572 FA                MOV     R2,A
0573 A3                INC     DPTR
0574 E0                MOVX    A,@DPTR
0575 F9                MOV     R1,A
0576 120000      E     LCALL   _strcat
                                           ; SOURCE LINE # 932
0579 900000      E     MOV     DPTR,#?_strcat?BYTE+03H
057C 74FF              MOV     A,#0FFH
057E F0                MOVX    @DPTR,A
057F A3                INC     DPTR
0580 7400        R     MOV     A,#HIGH ?SC_479
0582 F0                MOVX    @DPTR,A
0583 A3                INC     DPTR
0584 7400        R     MOV     A,#LOW ?SC_479
0586 F0                MOVX    @DPTR,A
0587 900000      R     MOV     DPTR,#info_string
058A E0                MOVX    A,@DPTR
058B FB                MOV     R3,A
058C A3                INC     DPTR
058D E0                MOVX    A,@DPTR
058E FA                MOV     R2,A
058F A3                INC     DPTR
0590 E0                MOVX    A,@DPTR
0591 F9                MOV     R1,A
0592 120000      E     LCALL   _strcat
                                           ; SOURCE LINE # 934
0595 900000      E     MOV     DPTR,#?_strcat?BYTE+03H
0598 74FF              MOV     A,#0FFH
059A F0                MOVX    @DPTR,A
059B A3                INC     DPTR
059C 7400        R     MOV     A,#HIGH ?SC_501
059E F0                MOVX    @DPTR,A
059F A3                INC     DPTR
05A0 7400        R     MOV     A,#LOW ?SC_501
05A2 F0                MOVX    @DPTR,A
05A3 900000      R     MOV     DPTR,#info_string
05A6 E0                MOVX    A,@DPTR
05A7 FB                MOV     R3,A
05A8 A3                INC     DPTR
C51 COMPILER V9.51   COMMAND_PROCESSING                                                    02/07/2017 16:12:02 PAGE 126 

05A9 E0                MOVX    A,@DPTR
05AA FA                MOV     R2,A
05AB A3                INC     DPTR
05AC E0                MOVX    A,@DPTR
05AD F9                MOV     R1,A
05AE 120000      E     LCALL   _strcat
                                           ; SOURCE LINE # 935
05B1 900000      E     MOV     DPTR,#c_mem+036H
05B4 E0                MOVX    A,@DPTR
05B5 6403              XRL     A,#03H
05B7 7003              JNZ     $ + 5H
05B9 020000      R     LJMP    ?C0235
                                           ; SOURCE LINE # 936
05BC 900000      E     MOV     DPTR,#?_sprintf?BYTE+03H
05BF 74FF              MOV     A,#0FFH
05C1 F0                MOVX    @DPTR,A
05C2 A3                INC     DPTR
05C3 7400        R     MOV     A,#HIGH ?SC_519
05C5 F0                MOVX    @DPTR,A
05C6 A3                INC     DPTR
05C7 7400        R     MOV     A,#LOW ?SC_519
05C9 F0                MOVX    @DPTR,A
05CA 900000      E     MOV     DPTR,#c_mem+02H
05CD E0                MOVX    A,@DPTR
05CE FC                MOV     R4,A
05CF A3                INC     DPTR
05D0 E0                MOVX    A,@DPTR
05D1 FD                MOV     R5,A
05D2 A3                INC     DPTR
05D3 E0                MOVX    A,@DPTR
05D4 FE                MOV     R6,A
05D5 A3                INC     DPTR
05D6 E0                MOVX    A,@DPTR
05D7 FF                MOV     R7,A
05D8 EC                MOV     A,R4
05D9 120000      E     LCALL   ?C?FCASTL
05DC E4                CLR     A
05DD FB                MOV     R3,A
05DE FA                MOV     R2,A
05DF 7980              MOV     R1,#080H
05E1 7847              MOV     R0,#047H
05E3 120000      E     LCALL   ?C?FPDIV
05E6 900000      E     MOV     DPTR,#?_sprintf?BYTE+06H
05E9 120000      E     LCALL   ?C?LSTXDATA
05EC 7B01              MOV     R3,#01H
05EE 7A00        R     MOV     R2,#HIGH str
05F0 7900        R     MOV     R1,#LOW str
05F2 120000      E     LCALL   _sprintf
                                           ; SOURCE LINE # 937
05F5 900000      E     MOV     DPTR,#?_strcat?BYTE+03H
05F8 7401              MOV     A,#01H
05FA F0                MOVX    @DPTR,A
05FB A3                INC     DPTR
05FC 7400        R     MOV     A,#HIGH str
05FE F0                MOVX    @DPTR,A
05FF A3                INC     DPTR
0600 7400        R     MOV     A,#LOW str
0602 F0                MOVX    @DPTR,A
0603 900000      R     MOV     DPTR,#info_string
0606 E0                MOVX    A,@DPTR
0607 FB                MOV     R3,A
0608 A3                INC     DPTR
C51 COMPILER V9.51   COMMAND_PROCESSING                                                    02/07/2017 16:12:02 PAGE 127 

0609 E0                MOVX    A,@DPTR
060A FA                MOV     R2,A
060B A3                INC     DPTR
060C E0                MOVX    A,@DPTR
060D F9                MOV     R1,A
060E 120000      E     LCALL   _strcat
                                           ; SOURCE LINE # 938
0611 900000      E     MOV     DPTR,#?_sprintf?BYTE+03H
0614 74FF              MOV     A,#0FFH
0616 F0                MOVX    @DPTR,A
0617 A3                INC     DPTR
0618 7400        R     MOV     A,#HIGH ?SC_529
061A F0                MOVX    @DPTR,A
061B A3                INC     DPTR
061C 7400        R     MOV     A,#LOW ?SC_529
061E F0                MOVX    @DPTR,A
061F 900000      E     MOV     DPTR,#c_mem+06H
0622 E0                MOVX    A,@DPTR
0623 FC                MOV     R4,A
0624 A3                INC     DPTR
0625 E0                MOVX    A,@DPTR
0626 FD                MOV     R5,A
0627 A3                INC     DPTR
0628 E0                MOVX    A,@DPTR
0629 FE                MOV     R6,A
062A A3                INC     DPTR
062B E0                MOVX    A,@DPTR
062C FF                MOV     R7,A
062D EC                MOV     A,R4
062E 120000      E     LCALL   ?C?FCASTL
0631 E4                CLR     A
0632 FB                MOV     R3,A
0633 FA                MOV     R2,A
0634 7980              MOV     R1,#080H
0636 7847              MOV     R0,#047H
0638 120000      E     LCALL   ?C?FPDIV
063B 900000      E     MOV     DPTR,#?_sprintf?BYTE+06H
063E 120000      E     LCALL   ?C?LSTXDATA
0641 7B01              MOV     R3,#01H
0643 7A00        R     MOV     R2,#HIGH str
0645 7900        R     MOV     R1,#LOW str
0647 120000      E     LCALL   _sprintf
                                           ; SOURCE LINE # 939
064A 900000      E     MOV     DPTR,#?_strcat?BYTE+03H
064D 7401              MOV     A,#01H
064F F0                MOVX    @DPTR,A
0650 A3                INC     DPTR
0651 7400        R     MOV     A,#HIGH str
0653 F0                MOVX    @DPTR,A
0654 A3                INC     DPTR
0655 7400        R     MOV     A,#LOW str
0657 F0                MOVX    @DPTR,A
0658 900000      R     MOV     DPTR,#info_string
065B E0                MOVX    A,@DPTR
065C FB                MOV     R3,A
065D A3                INC     DPTR
065E E0                MOVX    A,@DPTR
065F FA                MOV     R2,A
0660 A3                INC     DPTR
0661 E0                MOVX    A,@DPTR
0662 F9                MOV     R1,A
0663 120000      E     LCALL   _strcat
C51 COMPILER V9.51   COMMAND_PROCESSING                                                    02/07/2017 16:12:02 PAGE 128 

                                           ; SOURCE LINE # 940
0666 900000      E     MOV     DPTR,#?_sprintf?BYTE+03H
0669 74FF              MOV     A,#0FFH
066B F0                MOVX    @DPTR,A
066C A3                INC     DPTR
066D 7400        R     MOV     A,#HIGH ?SC_539
066F F0                MOVX    @DPTR,A
0670 A3                INC     DPTR
0671 7400        R     MOV     A,#LOW ?SC_539
0673 F0                MOVX    @DPTR,A
0674 900000      E     MOV     DPTR,#c_mem+0AH
0677 E0                MOVX    A,@DPTR
0678 FC                MOV     R4,A
0679 A3                INC     DPTR
067A E0                MOVX    A,@DPTR
067B FD                MOV     R5,A
067C A3                INC     DPTR
067D E0                MOVX    A,@DPTR
067E FE                MOV     R6,A
067F A3                INC     DPTR
0680 E0                MOVX    A,@DPTR
0681 FF                MOV     R7,A
0682 EC                MOV     A,R4
0683 120000      E     LCALL   ?C?FCASTL
0686 E4                CLR     A
0687 FB                MOV     R3,A
0688 FA                MOV     R2,A
0689 7980              MOV     R1,#080H
068B 7847              MOV     R0,#047H
068D 120000      E     LCALL   ?C?FPDIV
0690 900000      E     MOV     DPTR,#?_sprintf?BYTE+06H
0693 120000      E     LCALL   ?C?LSTXDATA
0696 7B01              MOV     R3,#01H
0698 7A00        R     MOV     R2,#HIGH str
069A 7900        R     MOV     R1,#LOW str
069C 120000      E     LCALL   _sprintf
                                           ; SOURCE LINE # 941
069F 900000      E     MOV     DPTR,#?_strcat?BYTE+03H
06A2 7401              MOV     A,#01H
06A4 F0                MOVX    @DPTR,A
06A5 A3                INC     DPTR
06A6 7400        R     MOV     A,#HIGH str
06A8 F0                MOVX    @DPTR,A
06A9 A3                INC     DPTR
06AA 7400        R     MOV     A,#LOW str
06AC F0                MOVX    @DPTR,A
06AD 900000      R     MOV     DPTR,#info_string
06B0 E0                MOVX    A,@DPTR
06B1 FB                MOV     R3,A
06B2 A3                INC     DPTR
06B3 E0                MOVX    A,@DPTR
06B4 FA                MOV     R2,A
06B5 A3                INC     DPTR
06B6 E0                MOVX    A,@DPTR
06B7 F9                MOV     R1,A
06B8 120000      E     LCALL   _strcat
                                           ; SOURCE LINE # 942
06BB 020000      R     LJMP    ?C0236
06BE         ?C0235:
                                           ; SOURCE LINE # 943
                                           ; SOURCE LINE # 944
06BE 900000      E     MOV     DPTR,#?_sprintf?BYTE+03H
C51 COMPILER V9.51   COMMAND_PROCESSING                                                    02/07/2017 16:12:02 PAGE 129 

06C1 74FF              MOV     A,#0FFH
06C3 F0                MOVX    @DPTR,A
06C4 A3                INC     DPTR
06C5 7400        R     MOV     A,#HIGH ?SC_519
06C7 F0                MOVX    @DPTR,A
06C8 A3                INC     DPTR
06C9 7400        R     MOV     A,#LOW ?SC_519
06CB F0                MOVX    @DPTR,A
06CC 900000      E     MOV     DPTR,#c_mem+01AH
06CF E0                MOVX    A,@DPTR
06D0 FC                MOV     R4,A
06D1 A3                INC     DPTR
06D2 E0                MOVX    A,@DPTR
06D3 FD                MOV     R5,A
06D4 A3                INC     DPTR
06D5 E0                MOVX    A,@DPTR
06D6 FE                MOV     R6,A
06D7 A3                INC     DPTR
06D8 E0                MOVX    A,@DPTR
06D9 FF                MOV     R7,A
06DA EC                MOV     A,R4
06DB 120000      E     LCALL   ?C?FCASTL
06DE E4                CLR     A
06DF FB                MOV     R3,A
06E0 FA                MOV     R2,A
06E1 7980              MOV     R1,#080H
06E3 7847              MOV     R0,#047H
06E5 120000      E     LCALL   ?C?FPDIV
06E8 900000      E     MOV     DPTR,#?_sprintf?BYTE+06H
06EB 120000      E     LCALL   ?C?LSTXDATA
06EE 7B01              MOV     R3,#01H
06F0 7A00        R     MOV     R2,#HIGH str
06F2 7900        R     MOV     R1,#LOW str
06F4 120000      E     LCALL   _sprintf
                                           ; SOURCE LINE # 945
06F7 900000      E     MOV     DPTR,#?_strcat?BYTE+03H
06FA 7401              MOV     A,#01H
06FC F0                MOVX    @DPTR,A
06FD A3                INC     DPTR
06FE 7400        R     MOV     A,#HIGH str
0700 F0                MOVX    @DPTR,A
0701 A3                INC     DPTR
0702 7400        R     MOV     A,#LOW str
0704 F0                MOVX    @DPTR,A
0705 900000      R     MOV     DPTR,#info_string
0708 E0                MOVX    A,@DPTR
0709 FB                MOV     R3,A
070A A3                INC     DPTR
070B E0                MOVX    A,@DPTR
070C FA                MOV     R2,A
070D A3                INC     DPTR
070E E0                MOVX    A,@DPTR
070F F9                MOV     R1,A
0710 120000      E     LCALL   _strcat
                                           ; SOURCE LINE # 946
0713 900000      E     MOV     DPTR,#?_sprintf?BYTE+03H
0716 74FF              MOV     A,#0FFH
0718 F0                MOVX    @DPTR,A
0719 A3                INC     DPTR
071A 7400        R     MOV     A,#HIGH ?SC_529
071C F0                MOVX    @DPTR,A
071D A3                INC     DPTR
C51 COMPILER V9.51   COMMAND_PROCESSING                                                    02/07/2017 16:12:02 PAGE 130 

071E 7400        R     MOV     A,#LOW ?SC_529
0720 F0                MOVX    @DPTR,A
0721 900000      E     MOV     DPTR,#c_mem+01EH
0724 E0                MOVX    A,@DPTR
0725 FC                MOV     R4,A
0726 A3                INC     DPTR
0727 E0                MOVX    A,@DPTR
0728 FD                MOV     R5,A
0729 A3                INC     DPTR
072A E0                MOVX    A,@DPTR
072B FE                MOV     R6,A
072C A3                INC     DPTR
072D E0                MOVX    A,@DPTR
072E FF                MOV     R7,A
072F EC                MOV     A,R4
0730 120000      E     LCALL   ?C?FCASTL
0733 E4                CLR     A
0734 FB                MOV     R3,A
0735 FA                MOV     R2,A
0736 7980              MOV     R1,#080H
0738 7847              MOV     R0,#047H
073A 120000      E     LCALL   ?C?FPDIV
073D 900000      E     MOV     DPTR,#?_sprintf?BYTE+06H
0740 120000      E     LCALL   ?C?LSTXDATA
0743 7B01              MOV     R3,#01H
0745 7A00        R     MOV     R2,#HIGH str
0747 7900        R     MOV     R1,#LOW str
0749 120000      E     LCALL   _sprintf
                                           ; SOURCE LINE # 947
074C 900000      E     MOV     DPTR,#?_strcat?BYTE+03H
074F 7401              MOV     A,#01H
0751 F0                MOVX    @DPTR,A
0752 A3                INC     DPTR
0753 7400        R     MOV     A,#HIGH str
0755 F0                MOVX    @DPTR,A
0756 A3                INC     DPTR
0757 7400        R     MOV     A,#LOW str
0759 F0                MOVX    @DPTR,A
075A 900000      R     MOV     DPTR,#info_string
075D E0                MOVX    A,@DPTR
075E FB                MOV     R3,A
075F A3                INC     DPTR
0760 E0                MOVX    A,@DPTR
0761 FA                MOV     R2,A
0762 A3                INC     DPTR
0763 E0                MOVX    A,@DPTR
0764 F9                MOV     R1,A
0765 120000      E     LCALL   _strcat
                                           ; SOURCE LINE # 948
0768 900000      E     MOV     DPTR,#?_sprintf?BYTE+03H
076B 74FF              MOV     A,#0FFH
076D F0                MOVX    @DPTR,A
076E A3                INC     DPTR
076F 7400        R     MOV     A,#HIGH ?SC_539
0771 F0                MOVX    @DPTR,A
0772 A3                INC     DPTR
0773 7400        R     MOV     A,#LOW ?SC_539
0775 F0                MOVX    @DPTR,A
0776 900000      E     MOV     DPTR,#c_mem+022H
0779 E0                MOVX    A,@DPTR
077A FC                MOV     R4,A
077B A3                INC     DPTR
C51 COMPILER V9.51   COMMAND_PROCESSING                                                    02/07/2017 16:12:02 PAGE 131 

077C E0                MOVX    A,@DPTR
077D FD                MOV     R5,A
077E A3                INC     DPTR
077F E0                MOVX    A,@DPTR
0780 FE                MOV     R6,A
0781 A3                INC     DPTR
0782 E0                MOVX    A,@DPTR
0783 FF                MOV     R7,A
0784 EC                MOV     A,R4
0785 120000      E     LCALL   ?C?FCASTL
0788 E4                CLR     A
0789 FB                MOV     R3,A
078A FA                MOV     R2,A
078B 7980              MOV     R1,#080H
078D 7847              MOV     R0,#047H
078F 120000      E     LCALL   ?C?FPDIV
0792 900000      E     MOV     DPTR,#?_sprintf?BYTE+06H
0795 120000      E     LCALL   ?C?LSTXDATA
0798 7B01              MOV     R3,#01H
079A 7A00        R     MOV     R2,#HIGH str
079C 7900        R     MOV     R1,#LOW str
079E 120000      E     LCALL   _sprintf
                                           ; SOURCE LINE # 949
07A1 900000      E     MOV     DPTR,#?_strcat?BYTE+03H
07A4 7401              MOV     A,#01H
07A6 F0                MOVX    @DPTR,A
07A7 A3                INC     DPTR
07A8 7400        R     MOV     A,#HIGH str
07AA F0                MOVX    @DPTR,A
07AB A3                INC     DPTR
07AC 7400        R     MOV     A,#LOW str
07AE F0                MOVX    @DPTR,A
07AF 900000      R     MOV     DPTR,#info_string
07B2 E0                MOVX    A,@DPTR
07B3 FB                MOV     R3,A
07B4 A3                INC     DPTR
07B5 E0                MOVX    A,@DPTR
07B6 FA                MOV     R2,A
07B7 A3                INC     DPTR
07B8 E0                MOVX    A,@DPTR
07B9 F9                MOV     R1,A
07BA 120000      E     LCALL   _strcat
                                           ; SOURCE LINE # 950
07BD         ?C0236:
                                           ; SOURCE LINE # 952
07BD 900000      E     MOV     DPTR,#?_strcat?BYTE+03H
07C0 74FF              MOV     A,#0FFH
07C2 F0                MOVX    @DPTR,A
07C3 A3                INC     DPTR
07C4 7400        R     MOV     A,#HIGH ?SC_549
07C6 F0                MOVX    @DPTR,A
07C7 A3                INC     DPTR
07C8 7400        R     MOV     A,#LOW ?SC_549
07CA F0                MOVX    @DPTR,A
07CB 900000      R     MOV     DPTR,#info_string
07CE E0                MOVX    A,@DPTR
07CF FB                MOV     R3,A
07D0 A3                INC     DPTR
07D1 E0                MOVX    A,@DPTR
07D2 FA                MOV     R2,A
07D3 A3                INC     DPTR
07D4 E0                MOVX    A,@DPTR
C51 COMPILER V9.51   COMMAND_PROCESSING                                                    02/07/2017 16:12:02 PAGE 132 

07D5 F9                MOV     R1,A
07D6 120000      E     LCALL   _strcat
                                           ; SOURCE LINE # 953
07D9 900000      E     MOV     DPTR,#c_mem+036H
07DC E0                MOVX    A,@DPTR
07DD 6403              XRL     A,#03H
07DF 7003              JNZ     $ + 5H
07E1 020000      R     LJMP    ?C0237
                                           ; SOURCE LINE # 954
07E4 900000      E     MOV     DPTR,#?_sprintf?BYTE+03H
07E7 74FF              MOV     A,#0FFH
07E9 F0                MOVX    @DPTR,A
07EA A3                INC     DPTR
07EB 7400        R     MOV     A,#HIGH ?SC_519
07ED F0                MOVX    @DPTR,A
07EE A3                INC     DPTR
07EF 7400        R     MOV     A,#LOW ?SC_519
07F1 F0                MOVX    @DPTR,A
07F2 900000      E     MOV     DPTR,#c_mem+0EH
07F5 E0                MOVX    A,@DPTR
07F6 FC                MOV     R4,A
07F7 A3                INC     DPTR
07F8 E0                MOVX    A,@DPTR
07F9 FD                MOV     R5,A
07FA A3                INC     DPTR
07FB E0                MOVX    A,@DPTR
07FC FE                MOV     R6,A
07FD A3                INC     DPTR
07FE E0                MOVX    A,@DPTR
07FF FF                MOV     R7,A
0800 EC                MOV     A,R4
0801 120000      E     LCALL   ?C?FCASTL
0804 E4                CLR     A
0805 FB                MOV     R3,A
0806 FA                MOV     R2,A
0807 7980              MOV     R1,#080H
0809 7847              MOV     R0,#047H
080B 120000      E     LCALL   ?C?FPDIV
080E 900000      E     MOV     DPTR,#?_sprintf?BYTE+06H
0811 120000      E     LCALL   ?C?LSTXDATA
0814 7B01              MOV     R3,#01H
0816 7A00        R     MOV     R2,#HIGH str
0818 7900        R     MOV     R1,#LOW str
081A 120000      E     LCALL   _sprintf
                                           ; SOURCE LINE # 955
081D 900000      E     MOV     DPTR,#?_strcat?BYTE+03H
0820 7401              MOV     A,#01H
0822 F0                MOVX    @DPTR,A
0823 A3                INC     DPTR
0824 7400        R     MOV     A,#HIGH str
0826 F0                MOVX    @DPTR,A
0827 A3                INC     DPTR
0828 7400        R     MOV     A,#LOW str
082A F0                MOVX    @DPTR,A
082B 900000      R     MOV     DPTR,#info_string
082E E0                MOVX    A,@DPTR
082F FB                MOV     R3,A
0830 A3                INC     DPTR
0831 E0                MOVX    A,@DPTR
0832 FA                MOV     R2,A
0833 A3                INC     DPTR
0834 E0                MOVX    A,@DPTR
C51 COMPILER V9.51   COMMAND_PROCESSING                                                    02/07/2017 16:12:02 PAGE 133 

0835 F9                MOV     R1,A
0836 120000      E     LCALL   _strcat
                                           ; SOURCE LINE # 956
0839 900000      E     MOV     DPTR,#?_sprintf?BYTE+03H
083C 74FF              MOV     A,#0FFH
083E F0                MOVX    @DPTR,A
083F A3                INC     DPTR
0840 7400        R     MOV     A,#HIGH ?SC_529
0842 F0                MOVX    @DPTR,A
0843 A3                INC     DPTR
0844 7400        R     MOV     A,#LOW ?SC_529
0846 F0                MOVX    @DPTR,A
0847 900000      E     MOV     DPTR,#c_mem+012H
084A E0                MOVX    A,@DPTR
084B FC                MOV     R4,A
084C A3                INC     DPTR
084D E0                MOVX    A,@DPTR
084E FD                MOV     R5,A
084F A3                INC     DPTR
0850 E0                MOVX    A,@DPTR
0851 FE                MOV     R6,A
0852 A3                INC     DPTR
0853 E0                MOVX    A,@DPTR
0854 FF                MOV     R7,A
0855 EC                MOV     A,R4
0856 120000      E     LCALL   ?C?FCASTL
0859 E4                CLR     A
085A FB                MOV     R3,A
085B FA                MOV     R2,A
085C 7980              MOV     R1,#080H
085E 7847              MOV     R0,#047H
0860 120000      E     LCALL   ?C?FPDIV
0863 900000      E     MOV     DPTR,#?_sprintf?BYTE+06H
0866 120000      E     LCALL   ?C?LSTXDATA
0869 7B01              MOV     R3,#01H
086B 7A00        R     MOV     R2,#HIGH str
086D 7900        R     MOV     R1,#LOW str
086F 120000      E     LCALL   _sprintf
                                           ; SOURCE LINE # 957
0872 900000      E     MOV     DPTR,#?_strcat?BYTE+03H
0875 7401              MOV     A,#01H
0877 F0                MOVX    @DPTR,A
0878 A3                INC     DPTR
0879 7400        R     MOV     A,#HIGH str
087B F0                MOVX    @DPTR,A
087C A3                INC     DPTR
087D 7400        R     MOV     A,#LOW str
087F F0                MOVX    @DPTR,A
0880 900000      R     MOV     DPTR,#info_string
0883 E0                MOVX    A,@DPTR
0884 FB                MOV     R3,A
0885 A3                INC     DPTR
0886 E0                MOVX    A,@DPTR
0887 FA                MOV     R2,A
0888 A3                INC     DPTR
0889 E0                MOVX    A,@DPTR
088A F9                MOV     R1,A
088B 120000      E     LCALL   _strcat
                                           ; SOURCE LINE # 958
088E 900000      E     MOV     DPTR,#?_sprintf?BYTE+03H
0891 74FF              MOV     A,#0FFH
0893 F0                MOVX    @DPTR,A
C51 COMPILER V9.51   COMMAND_PROCESSING                                                    02/07/2017 16:12:02 PAGE 134 

0894 A3                INC     DPTR
0895 7400        R     MOV     A,#HIGH ?SC_539
0897 F0                MOVX    @DPTR,A
0898 A3                INC     DPTR
0899 7400        R     MOV     A,#LOW ?SC_539
089B F0                MOVX    @DPTR,A
089C 900000      E     MOV     DPTR,#c_mem+016H
089F E0                MOVX    A,@DPTR
08A0 FC                MOV     R4,A
08A1 A3                INC     DPTR
08A2 E0                MOVX    A,@DPTR
08A3 FD                MOV     R5,A
08A4 A3                INC     DPTR
08A5 E0                MOVX    A,@DPTR
08A6 FE                MOV     R6,A
08A7 A3                INC     DPTR
08A8 E0                MOVX    A,@DPTR
08A9 FF                MOV     R7,A
08AA EC                MOV     A,R4
08AB 120000      E     LCALL   ?C?FCASTL
08AE E4                CLR     A
08AF FB                MOV     R3,A
08B0 FA                MOV     R2,A
08B1 7980              MOV     R1,#080H
08B3 7847              MOV     R0,#047H
08B5 120000      E     LCALL   ?C?FPDIV
08B8 900000      E     MOV     DPTR,#?_sprintf?BYTE+06H
08BB 120000      E     LCALL   ?C?LSTXDATA
08BE 7B01              MOV     R3,#01H
08C0 7A00        R     MOV     R2,#HIGH str
08C2 7900        R     MOV     R1,#LOW str
08C4 120000      E     LCALL   _sprintf
                                           ; SOURCE LINE # 959
08C7 900000      E     MOV     DPTR,#?_strcat?BYTE+03H
08CA 7401              MOV     A,#01H
08CC F0                MOVX    @DPTR,A
08CD A3                INC     DPTR
08CE 7400        R     MOV     A,#HIGH str
08D0 F0                MOVX    @DPTR,A
08D1 A3                INC     DPTR
08D2 7400        R     MOV     A,#LOW str
08D4 F0                MOVX    @DPTR,A
08D5 900000      R     MOV     DPTR,#info_string
08D8 E0                MOVX    A,@DPTR
08D9 FB                MOV     R3,A
08DA A3                INC     DPTR
08DB E0                MOVX    A,@DPTR
08DC FA                MOV     R2,A
08DD A3                INC     DPTR
08DE E0                MOVX    A,@DPTR
08DF F9                MOV     R1,A
08E0 120000      E     LCALL   _strcat
                                           ; SOURCE LINE # 960
08E3 020000      R     LJMP    ?C0238
08E6         ?C0237:
                                           ; SOURCE LINE # 961
                                           ; SOURCE LINE # 962
08E6 900000      E     MOV     DPTR,#?_sprintf?BYTE+03H
08E9 74FF              MOV     A,#0FFH
08EB F0                MOVX    @DPTR,A
08EC A3                INC     DPTR
08ED 7400        R     MOV     A,#HIGH ?SC_519
C51 COMPILER V9.51   COMMAND_PROCESSING                                                    02/07/2017 16:12:02 PAGE 135 

08EF F0                MOVX    @DPTR,A
08F0 A3                INC     DPTR
08F1 7400        R     MOV     A,#LOW ?SC_519
08F3 F0                MOVX    @DPTR,A
08F4 900000      E     MOV     DPTR,#c_mem+026H
08F7 E0                MOVX    A,@DPTR
08F8 FC                MOV     R4,A
08F9 A3                INC     DPTR
08FA E0                MOVX    A,@DPTR
08FB FD                MOV     R5,A
08FC A3                INC     DPTR
08FD E0                MOVX    A,@DPTR
08FE FE                MOV     R6,A
08FF A3                INC     DPTR
0900 E0                MOVX    A,@DPTR
0901 FF                MOV     R7,A
0902 EC                MOV     A,R4
0903 120000      E     LCALL   ?C?FCASTL
0906 E4                CLR     A
0907 FB                MOV     R3,A
0908 FA                MOV     R2,A
0909 7980              MOV     R1,#080H
090B 7847              MOV     R0,#047H
090D 120000      E     LCALL   ?C?FPDIV
0910 900000      E     MOV     DPTR,#?_sprintf?BYTE+06H
0913 120000      E     LCALL   ?C?LSTXDATA
0916 7B01              MOV     R3,#01H
0918 7A00        R     MOV     R2,#HIGH str
091A 7900        R     MOV     R1,#LOW str
091C 120000      E     LCALL   _sprintf
                                           ; SOURCE LINE # 963
091F 900000      E     MOV     DPTR,#?_strcat?BYTE+03H
0922 7401              MOV     A,#01H
0924 F0                MOVX    @DPTR,A
0925 A3                INC     DPTR
0926 7400        R     MOV     A,#HIGH str
0928 F0                MOVX    @DPTR,A
0929 A3                INC     DPTR
092A 7400        R     MOV     A,#LOW str
092C F0                MOVX    @DPTR,A
092D 900000      R     MOV     DPTR,#info_string
0930 E0                MOVX    A,@DPTR
0931 FB                MOV     R3,A
0932 A3                INC     DPTR
0933 E0                MOVX    A,@DPTR
0934 FA                MOV     R2,A
0935 A3                INC     DPTR
0936 E0                MOVX    A,@DPTR
0937 F9                MOV     R1,A
0938 120000      E     LCALL   _strcat
                                           ; SOURCE LINE # 964
093B 900000      E     MOV     DPTR,#?_sprintf?BYTE+03H
093E 74FF              MOV     A,#0FFH
0940 F0                MOVX    @DPTR,A
0941 A3                INC     DPTR
0942 7400        R     MOV     A,#HIGH ?SC_529
0944 F0                MOVX    @DPTR,A
0945 A3                INC     DPTR
0946 7400        R     MOV     A,#LOW ?SC_529
0948 F0                MOVX    @DPTR,A
0949 900000      E     MOV     DPTR,#c_mem+02AH
094C E0                MOVX    A,@DPTR
C51 COMPILER V9.51   COMMAND_PROCESSING                                                    02/07/2017 16:12:02 PAGE 136 

094D FC                MOV     R4,A
094E A3                INC     DPTR
094F E0                MOVX    A,@DPTR
0950 FD                MOV     R5,A
0951 A3                INC     DPTR
0952 E0                MOVX    A,@DPTR
0953 FE                MOV     R6,A
0954 A3                INC     DPTR
0955 E0                MOVX    A,@DPTR
0956 FF                MOV     R7,A
0957 EC                MOV     A,R4
0958 120000      E     LCALL   ?C?FCASTL
095B E4                CLR     A
095C FB                MOV     R3,A
095D FA                MOV     R2,A
095E 7980              MOV     R1,#080H
0960 7847              MOV     R0,#047H
0962 120000      E     LCALL   ?C?FPDIV
0965 900000      E     MOV     DPTR,#?_sprintf?BYTE+06H
0968 120000      E     LCALL   ?C?LSTXDATA
096B 7B01              MOV     R3,#01H
096D 7A00        R     MOV     R2,#HIGH str
096F 7900        R     MOV     R1,#LOW str
0971 120000      E     LCALL   _sprintf
                                           ; SOURCE LINE # 965
0974 900000      E     MOV     DPTR,#?_strcat?BYTE+03H
0977 7401              MOV     A,#01H
0979 F0                MOVX    @DPTR,A
097A A3                INC     DPTR
097B 7400        R     MOV     A,#HIGH str
097D F0                MOVX    @DPTR,A
097E A3                INC     DPTR
097F 7400        R     MOV     A,#LOW str
0981 F0                MOVX    @DPTR,A
0982 900000      R     MOV     DPTR,#info_string
0985 E0                MOVX    A,@DPTR
0986 FB                MOV     R3,A
0987 A3                INC     DPTR
0988 E0                MOVX    A,@DPTR
0989 FA                MOV     R2,A
098A A3                INC     DPTR
098B E0                MOVX    A,@DPTR
098C F9                MOV     R1,A
098D 120000      E     LCALL   _strcat
                                           ; SOURCE LINE # 966
0990 900000      E     MOV     DPTR,#?_sprintf?BYTE+03H
0993 74FF              MOV     A,#0FFH
0995 F0                MOVX    @DPTR,A
0996 A3                INC     DPTR
0997 7400        R     MOV     A,#HIGH ?SC_539
0999 F0                MOVX    @DPTR,A
099A A3                INC     DPTR
099B 7400        R     MOV     A,#LOW ?SC_539
099D F0                MOVX    @DPTR,A
099E 900000      E     MOV     DPTR,#c_mem+02EH
09A1 E0                MOVX    A,@DPTR
09A2 FC                MOV     R4,A
09A3 A3                INC     DPTR
09A4 E0                MOVX    A,@DPTR
09A5 FD                MOV     R5,A
09A6 A3                INC     DPTR
09A7 E0                MOVX    A,@DPTR
C51 COMPILER V9.51   COMMAND_PROCESSING                                                    02/07/2017 16:12:02 PAGE 137 

09A8 FE                MOV     R6,A
09A9 A3                INC     DPTR
09AA E0                MOVX    A,@DPTR
09AB FF                MOV     R7,A
09AC EC                MOV     A,R4
09AD 120000      E     LCALL   ?C?FCASTL
09B0 E4                CLR     A
09B1 FB                MOV     R3,A
09B2 FA                MOV     R2,A
09B3 7980              MOV     R1,#080H
09B5 7847              MOV     R0,#047H
09B7 120000      E     LCALL   ?C?FPDIV
09BA 900000      E     MOV     DPTR,#?_sprintf?BYTE+06H
09BD 120000      E     LCALL   ?C?LSTXDATA
09C0 7B01              MOV     R3,#01H
09C2 7A00        R     MOV     R2,#HIGH str
09C4 7900        R     MOV     R1,#LOW str
09C6 120000      E     LCALL   _sprintf
                                           ; SOURCE LINE # 967
09C9 900000      E     MOV     DPTR,#?_strcat?BYTE+03H
09CC 7401              MOV     A,#01H
09CE F0                MOVX    @DPTR,A
09CF A3                INC     DPTR
09D0 7400        R     MOV     A,#HIGH str
09D2 F0                MOVX    @DPTR,A
09D3 A3                INC     DPTR
09D4 7400        R     MOV     A,#LOW str
09D6 F0                MOVX    @DPTR,A
09D7 900000      R     MOV     DPTR,#info_string
09DA E0                MOVX    A,@DPTR
09DB FB                MOV     R3,A
09DC A3                INC     DPTR
09DD E0                MOVX    A,@DPTR
09DE FA                MOV     R2,A
09DF A3                INC     DPTR
09E0 E0                MOVX    A,@DPTR
09E1 F9                MOV     R1,A
09E2 120000      E     LCALL   _strcat
                                           ; SOURCE LINE # 968
09E5         ?C0238:
                                           ; SOURCE LINE # 970
09E5 900000      E     MOV     DPTR,#?_strcat?BYTE+03H
09E8 74FF              MOV     A,#0FFH
09EA F0                MOVX    @DPTR,A
09EB A3                INC     DPTR
09EC 7400        R     MOV     A,#HIGH ?SC_153
09EE F0                MOVX    @DPTR,A
09EF A3                INC     DPTR
09F0 7400        R     MOV     A,#LOW ?SC_153
09F2 F0                MOVX    @DPTR,A
09F3 900000      R     MOV     DPTR,#info_string
09F6 E0                MOVX    A,@DPTR
09F7 FB                MOV     R3,A
09F8 A3                INC     DPTR
09F9 E0                MOVX    A,@DPTR
09FA FA                MOV     R2,A
09FB A3                INC     DPTR
09FC E0                MOVX    A,@DPTR
09FD F9                MOV     R1,A
09FE 120000      E     LCALL   _strcat
                                           ; SOURCE LINE # 972
0A01 900000      E     MOV     DPTR,#c_mem+034H
C51 COMPILER V9.51   COMMAND_PROCESSING                                                    02/07/2017 16:12:02 PAGE 138 

0A04 E0                MOVX    A,@DPTR
0A05 B4031E            CJNE    A,#03H,?C0239
                                           ; SOURCE LINE # 973
0A08 900000      E     MOV     DPTR,#?_strcat?BYTE+03H
0A0B 74FF              MOV     A,#0FFH
0A0D F0                MOVX    @DPTR,A
0A0E A3                INC     DPTR
0A0F 7400        R     MOV     A,#HIGH ?SC_575
0A11 F0                MOVX    @DPTR,A
0A12 A3                INC     DPTR
0A13 7400        R     MOV     A,#LOW ?SC_575
0A15 F0                MOVX    @DPTR,A
0A16 900000      R     MOV     DPTR,#info_string
0A19 E0                MOVX    A,@DPTR
0A1A FB                MOV     R3,A
0A1B A3                INC     DPTR
0A1C E0                MOVX    A,@DPTR
0A1D FA                MOV     R2,A
0A1E A3                INC     DPTR
0A1F E0                MOVX    A,@DPTR
0A20 F9                MOV     R1,A
0A21 120000      E     LCALL   _strcat
                                           ; SOURCE LINE # 974
0A24 801C              SJMP    ?C0240
0A26         ?C0239:
                                           ; SOURCE LINE # 975
0A26 900000      E     MOV     DPTR,#?_strcat?BYTE+03H
0A29 74FF              MOV     A,#0FFH
0A2B F0                MOVX    @DPTR,A
0A2C A3                INC     DPTR
0A2D 7400        R     MOV     A,#HIGH ?SC_601
0A2F F0                MOVX    @DPTR,A
0A30 A3                INC     DPTR
0A31 7400        R     MOV     A,#LOW ?SC_601
0A33 F0                MOVX    @DPTR,A
0A34 900000      R     MOV     DPTR,#info_string
0A37 E0                MOVX    A,@DPTR
0A38 FB                MOV     R3,A
0A39 A3                INC     DPTR
0A3A E0                MOVX    A,@DPTR
0A3B FA                MOV     R2,A
0A3C A3                INC     DPTR
0A3D E0                MOVX    A,@DPTR
0A3E F9                MOV     R1,A
0A3F 120000      E     LCALL   _strcat
                                           ; SOURCE LINE # 976
0A42         ?C0240:
                                           ; SOURCE LINE # 978
0A42 900000      E     MOV     DPTR,#c_mem+035H
0A45 E0                MOVX    A,@DPTR
0A46 B40700            CJNE    A,#07H,?C0424
0A49         ?C0424:
0A49 4003              JC      $ + 5H
0A4B 020000      R     LJMP    ?C0241
0A4E 900000      R     MOV     DPTR,#?C0425
0A51 F8                MOV     R0,A
0A52 28                ADD     A,R0
0A53 28                ADD     A,R0
0A54 73                JMP     @A+DPTR
0A55         ?C0425:
0A55 020000      R     LJMP    ?C0242
0A58 020000      R     LJMP    ?C0243
C51 COMPILER V9.51   COMMAND_PROCESSING                                                    02/07/2017 16:12:02 PAGE 139 

0A5B 020000      R     LJMP    ?C0244
0A5E 020000      R     LJMP    ?C0245
0A61 020000      R     LJMP    ?C0246
0A64 020000      R     LJMP    ?C0247
0A67 020000      R     LJMP    ?C0248
                                           ; SOURCE LINE # 979
0A6A         ?C0242:
                                           ; SOURCE LINE # 980
0A6A 900000      E     MOV     DPTR,#?_strcat?BYTE+03H
0A6D 74FF              MOV     A,#0FFH
0A6F F0                MOVX    @DPTR,A
0A70 A3                INC     DPTR
0A71 7400        R     MOV     A,#HIGH ?SC_626
0A73 F0                MOVX    @DPTR,A
0A74 A3                INC     DPTR
0A75 7400        R     MOV     A,#LOW ?SC_626
0A77 F0                MOVX    @DPTR,A
0A78 900000      R     MOV     DPTR,#info_string
0A7B E0                MOVX    A,@DPTR
0A7C FB                MOV     R3,A
0A7D A3                INC     DPTR
0A7E E0                MOVX    A,@DPTR
0A7F FA                MOV     R2,A
0A80 A3                INC     DPTR
0A81 E0                MOVX    A,@DPTR
0A82 F9                MOV     R1,A
0A83 120000      E     LCALL   _strcat
                                           ; SOURCE LINE # 981
0A86 020000      R     LJMP    ?C0241
                                           ; SOURCE LINE # 982
0A89         ?C0243:
                                           ; SOURCE LINE # 983
0A89 900000      E     MOV     DPTR,#?_strcat?BYTE+03H
0A8C 74FF              MOV     A,#0FFH
0A8E F0                MOVX    @DPTR,A
0A8F A3                INC     DPTR
0A90 7400        R     MOV     A,#HIGH ?SC_644
0A92 F0                MOVX    @DPTR,A
0A93 A3                INC     DPTR
0A94 7400        R     MOV     A,#LOW ?SC_644
0A96 F0                MOVX    @DPTR,A
0A97 900000      R     MOV     DPTR,#info_string
0A9A E0                MOVX    A,@DPTR
0A9B FB                MOV     R3,A
0A9C A3                INC     DPTR
0A9D E0                MOVX    A,@DPTR
0A9E FA                MOV     R2,A
0A9F A3                INC     DPTR
0AA0 E0                MOVX    A,@DPTR
0AA1 F9                MOV     R1,A
0AA2 120000      E     LCALL   _strcat
                                           ; SOURCE LINE # 984
0AA5 020000      R     LJMP    ?C0241
                                           ; SOURCE LINE # 985
0AA8         ?C0244:
                                           ; SOURCE LINE # 986
0AA8 900000      E     MOV     DPTR,#?_strcat?BYTE+03H
0AAB 74FF              MOV     A,#0FFH
0AAD F0                MOVX    @DPTR,A
0AAE A3                INC     DPTR
0AAF 7400        R     MOV     A,#HIGH ?SC_665
0AB1 F0                MOVX    @DPTR,A
C51 COMPILER V9.51   COMMAND_PROCESSING                                                    02/07/2017 16:12:02 PAGE 140 

0AB2 A3                INC     DPTR
0AB3 7400        R     MOV     A,#LOW ?SC_665
0AB5 F0                MOVX    @DPTR,A
0AB6 900000      R     MOV     DPTR,#info_string
0AB9 E0                MOVX    A,@DPTR
0ABA FB                MOV     R3,A
0ABB A3                INC     DPTR
0ABC E0                MOVX    A,@DPTR
0ABD FA                MOV     R2,A
0ABE A3                INC     DPTR
0ABF E0                MOVX    A,@DPTR
0AC0 F9                MOV     R1,A
0AC1 120000      E     LCALL   _strcat
                                           ; SOURCE LINE # 987
0AC4 8076              SJMP    ?C0241
                                           ; SOURCE LINE # 988
0AC6         ?C0245:
                                           ; SOURCE LINE # 989
0AC6 900000      E     MOV     DPTR,#?_strcat?BYTE+03H
0AC9 74FF              MOV     A,#0FFH
0ACB F0                MOVX    @DPTR,A
0ACC A3                INC     DPTR
0ACD 7400        R     MOV     A,#HIGH ?SC_696
0ACF F0                MOVX    @DPTR,A
0AD0 A3                INC     DPTR
0AD1 7400        R     MOV     A,#LOW ?SC_696
0AD3 F0                MOVX    @DPTR,A
0AD4 900000      R     MOV     DPTR,#info_string
0AD7 E0                MOVX    A,@DPTR
0AD8 FB                MOV     R3,A
0AD9 A3                INC     DPTR
0ADA E0                MOVX    A,@DPTR
0ADB FA                MOV     R2,A
0ADC A3                INC     DPTR
0ADD E0                MOVX    A,@DPTR
0ADE F9                MOV     R1,A
0ADF 120000      E     LCALL   _strcat
                                           ; SOURCE LINE # 990
0AE2 8058              SJMP    ?C0241
                                           ; SOURCE LINE # 991
0AE4         ?C0246:
                                           ; SOURCE LINE # 992
0AE4 900000      E     MOV     DPTR,#?_strcat?BYTE+03H
0AE7 74FF              MOV     A,#0FFH
0AE9 F0                MOVX    @DPTR,A
0AEA A3                INC     DPTR
0AEB 7400        R     MOV     A,#HIGH ?SC_723
0AED F0                MOVX    @DPTR,A
0AEE A3                INC     DPTR
0AEF 7400        R     MOV     A,#LOW ?SC_723
0AF1 F0                MOVX    @DPTR,A
0AF2 900000      R     MOV     DPTR,#info_string
0AF5 E0                MOVX    A,@DPTR
0AF6 FB                MOV     R3,A
0AF7 A3                INC     DPTR
0AF8 E0                MOVX    A,@DPTR
0AF9 FA                MOV     R2,A
0AFA A3                INC     DPTR
0AFB E0                MOVX    A,@DPTR
0AFC F9                MOV     R1,A
0AFD 120000      E     LCALL   _strcat
                                           ; SOURCE LINE # 993
C51 COMPILER V9.51   COMMAND_PROCESSING                                                    02/07/2017 16:12:02 PAGE 141 

0B00 803A              SJMP    ?C0241
                                           ; SOURCE LINE # 994
0B02         ?C0247:
                                           ; SOURCE LINE # 995
0B02 900000      E     MOV     DPTR,#?_strcat?BYTE+03H
0B05 74FF              MOV     A,#0FFH
0B07 F0                MOVX    @DPTR,A
0B08 A3                INC     DPTR
0B09 7400        R     MOV     A,#HIGH ?SC_746
0B0B F0                MOVX    @DPTR,A
0B0C A3                INC     DPTR
0B0D 7400        R     MOV     A,#LOW ?SC_746
0B0F F0                MOVX    @DPTR,A
0B10 900000      R     MOV     DPTR,#info_string
0B13 E0                MOVX    A,@DPTR
0B14 FB                MOV     R3,A
0B15 A3                INC     DPTR
0B16 E0                MOVX    A,@DPTR
0B17 FA                MOV     R2,A
0B18 A3                INC     DPTR
0B19 E0                MOVX    A,@DPTR
0B1A F9                MOV     R1,A
0B1B 120000      E     LCALL   _strcat
                                           ; SOURCE LINE # 996
0B1E 801C              SJMP    ?C0241
                                           ; SOURCE LINE # 997
0B20         ?C0248:
                                           ; SOURCE LINE # 998
0B20 900000      E     MOV     DPTR,#?_strcat?BYTE+03H
0B23 74FF              MOV     A,#0FFH
0B25 F0                MOVX    @DPTR,A
0B26 A3                INC     DPTR
0B27 7400        R     MOV     A,#HIGH ?SC_773
0B29 F0                MOVX    @DPTR,A
0B2A A3                INC     DPTR
0B2B 7400        R     MOV     A,#LOW ?SC_773
0B2D F0                MOVX    @DPTR,A
0B2E 900000      R     MOV     DPTR,#info_string
0B31 E0                MOVX    A,@DPTR
0B32 FB                MOV     R3,A
0B33 A3                INC     DPTR
0B34 E0                MOVX    A,@DPTR
0B35 FA                MOV     R2,A
0B36 A3                INC     DPTR
0B37 E0                MOVX    A,@DPTR
0B38 F9                MOV     R1,A
0B39 120000      E     LCALL   _strcat
                                           ; SOURCE LINE # 999
                                           ; SOURCE LINE # 1000
0B3C         ?C0241:
                                           ; SOURCE LINE # 1002
0B3C 900000      E     MOV     DPTR,#?_strcat?BYTE+03H
0B3F 74FF              MOV     A,#0FFH
0B41 F0                MOVX    @DPTR,A
0B42 A3                INC     DPTR
0B43 7400        R     MOV     A,#HIGH ?SC_796
0B45 F0                MOVX    @DPTR,A
0B46 A3                INC     DPTR
0B47 7400        R     MOV     A,#LOW ?SC_796
0B49 F0                MOVX    @DPTR,A
0B4A 900000      R     MOV     DPTR,#info_string
0B4D E0                MOVX    A,@DPTR
C51 COMPILER V9.51   COMMAND_PROCESSING                                                    02/07/2017 16:12:02 PAGE 142 

0B4E FB                MOV     R3,A
0B4F A3                INC     DPTR
0B50 E0                MOVX    A,@DPTR
0B51 FA                MOV     R2,A
0B52 A3                INC     DPTR
0B53 E0                MOVX    A,@DPTR
0B54 F9                MOV     R1,A
0B55 120000      E     LCALL   _strcat
                                           ; SOURCE LINE # 1003
0B58 900000      E     MOV     DPTR,#c_mem+036H
0B5B E0                MOVX    A,@DPTR
0B5C 14                DEC     A
0B5D 6028              JZ      ?C0251
0B5F 14                DEC     A
0B60 6043              JZ      ?C0252
0B62 14                DEC     A
0B63 605E              JZ      ?C0253
0B65 2403              ADD     A,#03H
0B67 7076              JNZ     ?C0249
                                           ; SOURCE LINE # 1004
0B69         ?C0250:
                                           ; SOURCE LINE # 1005
0B69 900000      E     MOV     DPTR,#?_strcat?BYTE+03H
0B6C 74FF              MOV     A,#0FFH
0B6E F0                MOVX    @DPTR,A
0B6F A3                INC     DPTR
0B70 7400        R     MOV     A,#HIGH ?SC_811
0B72 F0                MOVX    @DPTR,A
0B73 A3                INC     DPTR
0B74 7400        R     MOV     A,#LOW ?SC_811
0B76 F0                MOVX    @DPTR,A
0B77 900000      R     MOV     DPTR,#info_string
0B7A E0                MOVX    A,@DPTR
0B7B FB                MOV     R3,A
0B7C A3                INC     DPTR
0B7D E0                MOVX    A,@DPTR
0B7E FA                MOV     R2,A
0B7F A3                INC     DPTR
0B80 E0                MOVX    A,@DPTR
0B81 F9                MOV     R1,A
0B82 120000      E     LCALL   _strcat
                                           ; SOURCE LINE # 1006
0B85 8058              SJMP    ?C0249
                                           ; SOURCE LINE # 1007
0B87         ?C0251:
                                           ; SOURCE LINE # 1008
0B87 900000      E     MOV     DPTR,#?_strcat?BYTE+03H
0B8A 74FF              MOV     A,#0FFH
0B8C F0                MOVX    @DPTR,A
0B8D A3                INC     DPTR
0B8E 7400        R     MOV     A,#HIGH ?SC_822
0B90 F0                MOVX    @DPTR,A
0B91 A3                INC     DPTR
0B92 7400        R     MOV     A,#LOW ?SC_822
0B94 F0                MOVX    @DPTR,A
0B95 900000      R     MOV     DPTR,#info_string
0B98 E0                MOVX    A,@DPTR
0B99 FB                MOV     R3,A
0B9A A3                INC     DPTR
0B9B E0                MOVX    A,@DPTR
0B9C FA                MOV     R2,A
0B9D A3                INC     DPTR
C51 COMPILER V9.51   COMMAND_PROCESSING                                                    02/07/2017 16:12:02 PAGE 143 

0B9E E0                MOVX    A,@DPTR
0B9F F9                MOV     R1,A
0BA0 120000      E     LCALL   _strcat
                                           ; SOURCE LINE # 1009
0BA3 803A              SJMP    ?C0249
                                           ; SOURCE LINE # 1010
0BA5         ?C0252:
                                           ; SOURCE LINE # 1011
0BA5 900000      E     MOV     DPTR,#?_strcat?BYTE+03H
0BA8 74FF              MOV     A,#0FFH
0BAA F0                MOVX    @DPTR,A
0BAB A3                INC     DPTR
0BAC 7400        R     MOV     A,#HIGH ?SC_828
0BAE F0                MOVX    @DPTR,A
0BAF A3                INC     DPTR
0BB0 7400        R     MOV     A,#LOW ?SC_828
0BB2 F0                MOVX    @DPTR,A
0BB3 900000      R     MOV     DPTR,#info_string
0BB6 E0                MOVX    A,@DPTR
0BB7 FB                MOV     R3,A
0BB8 A3                INC     DPTR
0BB9 E0                MOVX    A,@DPTR
0BBA FA                MOV     R2,A
0BBB A3                INC     DPTR
0BBC E0                MOVX    A,@DPTR
0BBD F9                MOV     R1,A
0BBE 120000      E     LCALL   _strcat
                                           ; SOURCE LINE # 1012
0BC1 801C              SJMP    ?C0249
                                           ; SOURCE LINE # 1013
0BC3         ?C0253:
                                           ; SOURCE LINE # 1014
0BC3 900000      E     MOV     DPTR,#?_strcat?BYTE+03H
0BC6 74FF              MOV     A,#0FFH
0BC8 F0                MOVX    @DPTR,A
0BC9 A3                INC     DPTR
0BCA 7400        R     MOV     A,#HIGH ?SC_838
0BCC F0                MOVX    @DPTR,A
0BCD A3                INC     DPTR
0BCE 7400        R     MOV     A,#LOW ?SC_838
0BD0 F0                MOVX    @DPTR,A
0BD1 900000      R     MOV     DPTR,#info_string
0BD4 E0                MOVX    A,@DPTR
0BD5 FB                MOV     R3,A
0BD6 A3                INC     DPTR
0BD7 E0                MOVX    A,@DPTR
0BD8 FA                MOV     R2,A
0BD9 A3                INC     DPTR
0BDA E0                MOVX    A,@DPTR
0BDB F9                MOV     R1,A
0BDC 120000      E     LCALL   _strcat
                                           ; SOURCE LINE # 1015
                                           ; SOURCE LINE # 1016
0BDF         ?C0249:
                                           ; SOURCE LINE # 1018
0BDF 900000      E     MOV     DPTR,#c_mem+084H
0BE2 E0                MOVX    A,@DPTR
0BE3 601E              JZ      ?C0254
                                           ; SOURCE LINE # 1019
0BE5 900000      E     MOV     DPTR,#?_strcat?BYTE+03H
0BE8 74FF              MOV     A,#0FFH
0BEA F0                MOVX    @DPTR,A
C51 COMPILER V9.51   COMMAND_PROCESSING                                                    02/07/2017 16:12:02 PAGE 144 

0BEB A3                INC     DPTR
0BEC 7400        R     MOV     A,#HIGH ?SC_861
0BEE F0                MOVX    @DPTR,A
0BEF A3                INC     DPTR
0BF0 7400        R     MOV     A,#LOW ?SC_861
0BF2 F0                MOVX    @DPTR,A
0BF3 900000      R     MOV     DPTR,#info_string
0BF6 E0                MOVX    A,@DPTR
0BF7 FB                MOV     R3,A
0BF8 A3                INC     DPTR
0BF9 E0                MOVX    A,@DPTR
0BFA FA                MOV     R2,A
0BFB A3                INC     DPTR
0BFC E0                MOVX    A,@DPTR
0BFD F9                MOV     R1,A
0BFE 120000      E     LCALL   _strcat
0C01 801C              SJMP    ?C0255
0C03         ?C0254:
                                           ; SOURCE LINE # 1021
0C03 900000      E     MOV     DPTR,#?_strcat?BYTE+03H
0C06 74FF              MOV     A,#0FFH
0C08 F0                MOVX    @DPTR,A
0C09 A3                INC     DPTR
0C0A 7400        R     MOV     A,#HIGH ?SC_894
0C0C F0                MOVX    @DPTR,A
0C0D A3                INC     DPTR
0C0E 7400        R     MOV     A,#LOW ?SC_894
0C10 F0                MOVX    @DPTR,A
0C11 900000      R     MOV     DPTR,#info_string
0C14 E0                MOVX    A,@DPTR
0C15 FB                MOV     R3,A
0C16 A3                INC     DPTR
0C17 E0                MOVX    A,@DPTR
0C18 FA                MOV     R2,A
0C19 A3                INC     DPTR
0C1A E0                MOVX    A,@DPTR
0C1B F9                MOV     R1,A
0C1C 120000      E     LCALL   _strcat
0C1F         ?C0255:
                                           ; SOURCE LINE # 1023
0C1F 900000      E     MOV     DPTR,#?_sprintf?BYTE+03H
0C22 74FF              MOV     A,#0FFH
0C24 F0                MOVX    @DPTR,A
0C25 A3                INC     DPTR
0C26 7400        R     MOV     A,#HIGH ?SC_926
0C28 F0                MOVX    @DPTR,A
0C29 A3                INC     DPTR
0C2A 7400        R     MOV     A,#LOW ?SC_926
0C2C F0                MOVX    @DPTR,A
0C2D 900000      E     MOV     DPTR,#c_mem+085H
0C30 E0                MOVX    A,@DPTR
0C31 FE                MOV     R6,A
0C32 33                RLC     A
0C33 95E0              SUBB    A,ACC
0C35 900000      E     MOV     DPTR,#?_sprintf?BYTE+06H
0C38 F0                MOVX    @DPTR,A
0C39 A3                INC     DPTR
0C3A CE                XCH     A,R6
0C3B F0                MOVX    @DPTR,A
0C3C 7B01              MOV     R3,#01H
0C3E 7A00        R     MOV     R2,#HIGH str
0C40 7900        R     MOV     R1,#LOW str
C51 COMPILER V9.51   COMMAND_PROCESSING                                                    02/07/2017 16:12:02 PAGE 145 

0C42 120000      E     LCALL   _sprintf
                                           ; SOURCE LINE # 1024
0C45 900000      E     MOV     DPTR,#?_strcat?BYTE+03H
0C48 7401              MOV     A,#01H
0C4A F0                MOVX    @DPTR,A
0C4B A3                INC     DPTR
0C4C 7400        R     MOV     A,#HIGH str
0C4E F0                MOVX    @DPTR,A
0C4F A3                INC     DPTR
0C50 7400        R     MOV     A,#LOW str
0C52 F0                MOVX    @DPTR,A
0C53 900000      R     MOV     DPTR,#info_string
0C56 E0                MOVX    A,@DPTR
0C57 FB                MOV     R3,A
0C58 A3                INC     DPTR
0C59 E0                MOVX    A,@DPTR
0C5A FA                MOV     R2,A
0C5B A3                INC     DPTR
0C5C E0                MOVX    A,@DPTR
0C5D F9                MOV     R1,A
0C5E 120000      E     LCALL   _strcat
                                           ; SOURCE LINE # 1026
0C61 900000      E     MOV     DPTR,#?_strcat?BYTE+03H
0C64 74FF              MOV     A,#0FFH
0C66 F0                MOVX    @DPTR,A
0C67 A3                INC     DPTR
0C68 7400        R     MOV     A,#HIGH ?SC_951
0C6A F0                MOVX    @DPTR,A
0C6B A3                INC     DPTR
0C6C 7400        R     MOV     A,#LOW ?SC_951
0C6E F0                MOVX    @DPTR,A
0C6F 900000      R     MOV     DPTR,#info_string
0C72 E0                MOVX    A,@DPTR
0C73 FB                MOV     R3,A
0C74 A3                INC     DPTR
0C75 E0                MOVX    A,@DPTR
0C76 FA                MOV     R2,A
0C77 A3                INC     DPTR
0C78 E0                MOVX    A,@DPTR
0C79 F9                MOV     R1,A
0C7A 120000      E     LCALL   _strcat
                                           ; SOURCE LINE # 1027
0C7D E4                CLR     A
0C7E F500        R     MOV     i,A
0C80 F500        R     MOV     i+01H,A
0C82         ?C0256:
0C82 C3                CLR     C
0C83 E500        R     MOV     A,i+01H
0C85 9404              SUBB    A,#04H
0C87 E500        R     MOV     A,i
0C89 6480              XRL     A,#080H
0C8B 9480              SUBB    A,#080H
0C8D 507F              JNC     ?C0257
                                           ; SOURCE LINE # 1028
                                           ; SOURCE LINE # 1030
0C8F 900000      E     MOV     DPTR,#?_sprintf?BYTE+03H
0C92 74FF              MOV     A,#0FFH
0C94 F0                MOVX    @DPTR,A
0C95 A3                INC     DPTR
0C96 7400        R     MOV     A,#HIGH ?SC_380
0C98 F0                MOVX    @DPTR,A
0C99 A3                INC     DPTR
C51 COMPILER V9.51   COMMAND_PROCESSING                                                    02/07/2017 16:12:02 PAGE 146 

0C9A 7400        R     MOV     A,#LOW ?SC_380
0C9C F0                MOVX    @DPTR,A
0C9D E500        R     MOV     A,i+01H
0C9F 2401              ADD     A,#01H
0CA1 900000      E     MOV     DPTR,#?_sprintf?BYTE+07H
0CA4 F0                MOVX    @DPTR,A
0CA5 E4                CLR     A
0CA6 3500        R     ADDC    A,i
0CA8 900000      E     MOV     DPTR,#?_sprintf?BYTE+06H
0CAB F0                MOVX    @DPTR,A
0CAC 7400        E     MOV     A,#LOW c_mem+037H
0CAE 2500        R     ADD     A,i+01H
0CB0 F582              MOV     DPL,A
0CB2 7400        E     MOV     A,#HIGH c_mem+037H
0CB4 3500        R     ADDC    A,i
0CB6 F583              MOV     DPH,A
0CB8 E0                MOVX    A,@DPTR
0CB9 FF                MOV     R7,A
0CBA 900000      E     MOV     DPTR,#?_sprintf?BYTE+08H
0CBD E4                CLR     A
0CBE F0                MOVX    @DPTR,A
0CBF A3                INC     DPTR
0CC0 EF                MOV     A,R7
0CC1 F0                MOVX    @DPTR,A
0CC2 7B01              MOV     R3,#01H
0CC4 7A00        R     MOV     R2,#HIGH str
0CC6 7900        R     MOV     R1,#LOW str
0CC8 120000      E     LCALL   _sprintf
                                           ; SOURCE LINE # 1031
0CCB 900000      E     MOV     DPTR,#?_strcat?BYTE+03H
0CCE 7401              MOV     A,#01H
0CD0 F0                MOVX    @DPTR,A
0CD1 A3                INC     DPTR
0CD2 7400        R     MOV     A,#HIGH str
0CD4 F0                MOVX    @DPTR,A
0CD5 A3                INC     DPTR
0CD6 7400        R     MOV     A,#LOW str
0CD8 F0                MOVX    @DPTR,A
0CD9 900000      R     MOV     DPTR,#info_string
0CDC E0                MOVX    A,@DPTR
0CDD FB                MOV     R3,A
0CDE A3                INC     DPTR
0CDF E0                MOVX    A,@DPTR
0CE0 FA                MOV     R2,A
0CE1 A3                INC     DPTR
0CE2 E0                MOVX    A,@DPTR
0CE3 F9                MOV     R1,A
0CE4 120000      E     LCALL   _strcat
                                           ; SOURCE LINE # 1032
0CE7 900000      E     MOV     DPTR,#?_strcat?BYTE+03H
0CEA 74FF              MOV     A,#0FFH
0CEC F0                MOVX    @DPTR,A
0CED A3                INC     DPTR
0CEE 7400        R     MOV     A,#HIGH ?SC_153
0CF0 F0                MOVX    @DPTR,A
0CF1 A3                INC     DPTR
0CF2 7400        R     MOV     A,#LOW ?SC_153
0CF4 F0                MOVX    @DPTR,A
0CF5 900000      R     MOV     DPTR,#info_string
0CF8 E0                MOVX    A,@DPTR
0CF9 FB                MOV     R3,A
0CFA A3                INC     DPTR
C51 COMPILER V9.51   COMMAND_PROCESSING                                                    02/07/2017 16:12:02 PAGE 147 

0CFB E0                MOVX    A,@DPTR
0CFC FA                MOV     R2,A
0CFD A3                INC     DPTR
0CFE E0                MOVX    A,@DPTR
0CFF F9                MOV     R1,A
0D00 120000      E     LCALL   _strcat
                                           ; SOURCE LINE # 1033
0D03 0500        R     INC     i+01H
0D05 E500        R     MOV     A,i+01H
0D07 7002              JNZ     ?C0426
0D09 0500        R     INC     i
0D0B         ?C0426:
0D0B 020000      R     LJMP    ?C0256
0D0E         ?C0257:
                                           ; SOURCE LINE # 1035
0D0E 900000      E     MOV     DPTR,#?_strcat?BYTE+03H
0D11 74FF              MOV     A,#0FFH
0D13 F0                MOVX    @DPTR,A
0D14 A3                INC     DPTR
0D15 7400        R     MOV     A,#HIGH ?SC_972
0D17 F0                MOVX    @DPTR,A
0D18 A3                INC     DPTR
0D19 7400        R     MOV     A,#LOW ?SC_972
0D1B F0                MOVX    @DPTR,A
0D1C 900000      R     MOV     DPTR,#info_string
0D1F E0                MOVX    A,@DPTR
0D20 FB                MOV     R3,A
0D21 A3                INC     DPTR
0D22 E0                MOVX    A,@DPTR
0D23 FA                MOV     R2,A
0D24 A3                INC     DPTR
0D25 E0                MOVX    A,@DPTR
0D26 F9                MOV     R1,A
0D27 120000      E     LCALL   _strcat
                                           ; SOURCE LINE # 1036
0D2A E4                CLR     A
0D2B F500        R     MOV     i,A
0D2D F500        R     MOV     i+01H,A
0D2F         ?C0259:
0D2F C3                CLR     C
0D30 E500        R     MOV     A,i+01H
0D32 9404              SUBB    A,#04H
0D34 E500        R     MOV     A,i
0D36 6480              XRL     A,#080H
0D38 9480              SUBB    A,#080H
0D3A 4003              JC      $ + 5H
0D3C 020000      R     LJMP    ?C0260
                                           ; SOURCE LINE # 1037
                                           ; SOURCE LINE # 1039
0D3F 900000      E     MOV     DPTR,#?_sprintf?BYTE+03H
0D42 74FF              MOV     A,#0FFH
0D44 F0                MOVX    @DPTR,A
0D45 A3                INC     DPTR
0D46 7400        R     MOV     A,#HIGH ?SC_994
0D48 F0                MOVX    @DPTR,A
0D49 A3                INC     DPTR
0D4A 7400        R     MOV     A,#LOW ?SC_994
0D4C F0                MOVX    @DPTR,A
0D4D E500        R     MOV     A,i+01H
0D4F 2401              ADD     A,#01H
0D51 900000      E     MOV     DPTR,#?_sprintf?BYTE+07H
0D54 F0                MOVX    @DPTR,A
C51 COMPILER V9.51   COMMAND_PROCESSING                                                    02/07/2017 16:12:02 PAGE 148 

0D55 E4                CLR     A
0D56 3500        R     ADDC    A,i
0D58 900000      E     MOV     DPTR,#?_sprintf?BYTE+06H
0D5B F0                MOVX    @DPTR,A
0D5C E500        R     MOV     A,i+01H
0D5E AE00        R     MOV     R6,i
0D60 7802              MOV     R0,#02H
0D62         ?C0427:
0D62 C3                CLR     C
0D63 33                RLC     A
0D64 CE                XCH     A,R6
0D65 33                RLC     A
0D66 CE                XCH     A,R6
0D67 D8F9              DJNZ    R0,?C0427
0D69 2400        E     ADD     A,#LOW c_mem+03BH
0D6B F582              MOV     DPL,A
0D6D 7400        E     MOV     A,#HIGH c_mem+03BH
0D6F 3E                ADDC    A,R6
0D70 F583              MOV     DPH,A
0D72 E0                MOVX    A,@DPTR
0D73 FC                MOV     R4,A
0D74 A3                INC     DPTR
0D75 E0                MOVX    A,@DPTR
0D76 FD                MOV     R5,A
0D77 A3                INC     DPTR
0D78 E0                MOVX    A,@DPTR
0D79 FE                MOV     R6,A
0D7A A3                INC     DPTR
0D7B E0                MOVX    A,@DPTR
0D7C FF                MOV     R7,A
0D7D 7400        E     MOV     A,#LOW c_mem+037H
0D7F 2500        R     ADD     A,i+01H
0D81 F582              MOV     DPL,A
0D83 7400        E     MOV     A,#HIGH c_mem+037H
0D85 3500        R     ADDC    A,i
0D87 F583              MOV     DPH,A
0D89 E0                MOVX    A,@DPTR
0D8A F9                MOV     R1,A
0D8B F8                MOV     R0,A
0D8C 120000      E     LCALL   ?C?SLSHR
0D8F 900000      E     MOV     DPTR,#?_sprintf?BYTE+08H
0D92 120000      E     LCALL   ?C?LSTXDATA
0D95 7B01              MOV     R3,#01H
0D97 7A00        R     MOV     R2,#HIGH str
0D99 7900        R     MOV     R1,#LOW str
0D9B 120000      E     LCALL   _sprintf
                                           ; SOURCE LINE # 1040
0D9E 900000      E     MOV     DPTR,#?_strcat?BYTE+03H
0DA1 7401              MOV     A,#01H
0DA3 F0                MOVX    @DPTR,A
0DA4 A3                INC     DPTR
0DA5 7400        R     MOV     A,#HIGH str
0DA7 F0                MOVX    @DPTR,A
0DA8 A3                INC     DPTR
0DA9 7400        R     MOV     A,#LOW str
0DAB F0                MOVX    @DPTR,A
0DAC 900000      R     MOV     DPTR,#info_string
0DAF E0                MOVX    A,@DPTR
0DB0 FB                MOV     R3,A
0DB1 A3                INC     DPTR
0DB2 E0                MOVX    A,@DPTR
0DB3 FA                MOV     R2,A
C51 COMPILER V9.51   COMMAND_PROCESSING                                                    02/07/2017 16:12:02 PAGE 149 

0DB4 A3                INC     DPTR
0DB5 E0                MOVX    A,@DPTR
0DB6 F9                MOV     R1,A
0DB7 120000      E     LCALL   _strcat
                                           ; SOURCE LINE # 1041
0DBA 900000      E     MOV     DPTR,#?_strcat?BYTE+03H
0DBD 74FF              MOV     A,#0FFH
0DBF F0                MOVX    @DPTR,A
0DC0 A3                INC     DPTR
0DC1 7400        R     MOV     A,#HIGH ?SC_153
0DC3 F0                MOVX    @DPTR,A
0DC4 A3                INC     DPTR
0DC5 7400        R     MOV     A,#LOW ?SC_153
0DC7 F0                MOVX    @DPTR,A
0DC8 900000      R     MOV     DPTR,#info_string
0DCB E0                MOVX    A,@DPTR
0DCC FB                MOV     R3,A
0DCD A3                INC     DPTR
0DCE E0                MOVX    A,@DPTR
0DCF FA                MOV     R2,A
0DD0 A3                INC     DPTR
0DD1 E0                MOVX    A,@DPTR
0DD2 F9                MOV     R1,A
0DD3 120000      E     LCALL   _strcat
                                           ; SOURCE LINE # 1042
0DD6 0500        R     INC     i+01H
0DD8 E500        R     MOV     A,i+01H
0DDA 7002              JNZ     ?C0428
0DDC 0500        R     INC     i
0DDE         ?C0428:
0DDE 020000      R     LJMP    ?C0259
0DE1         ?C0260:
                                           ; SOURCE LINE # 1044
0DE1 900000      E     MOV     DPTR,#?_strcat?BYTE+03H
0DE4 74FF              MOV     A,#0FFH
0DE6 F0                MOVX    @DPTR,A
0DE7 A3                INC     DPTR
0DE8 7400        R     MOV     A,#HIGH ?SC_1004
0DEA F0                MOVX    @DPTR,A
0DEB A3                INC     DPTR
0DEC 7400        R     MOV     A,#LOW ?SC_1004
0DEE F0                MOVX    @DPTR,A
0DEF 900000      R     MOV     DPTR,#info_string
0DF2 E0                MOVX    A,@DPTR
0DF3 FB                MOV     R3,A
0DF4 A3                INC     DPTR
0DF5 E0                MOVX    A,@DPTR
0DF6 FA                MOV     R2,A
0DF7 A3                INC     DPTR
0DF8 E0                MOVX    A,@DPTR
0DF9 F9                MOV     R1,A
0DFA 120000      E     LCALL   _strcat
                                           ; SOURCE LINE # 1045
0DFD E4                CLR     A
0DFE F500        R     MOV     i,A
0E00 F500        R     MOV     i+01H,A
0E02         ?C0262:
0E02 C3                CLR     C
0E03 E500        R     MOV     A,i+01H
0E05 9404              SUBB    A,#04H
0E07 E500        R     MOV     A,i
0E09 6480              XRL     A,#080H
C51 COMPILER V9.51   COMMAND_PROCESSING                                                    02/07/2017 16:12:02 PAGE 150 

0E0B 9480              SUBB    A,#080H
0E0D 4003              JC      $ + 5H
0E0F 020000      R     LJMP    ?C0263
                                           ; SOURCE LINE # 1046
                                           ; SOURCE LINE # 1048
0E12 900000      E     MOV     DPTR,#?_sprintf?BYTE+03H
0E15 74FF              MOV     A,#0FFH
0E17 F0                MOVX    @DPTR,A
0E18 A3                INC     DPTR
0E19 7400        R     MOV     A,#HIGH ?SC_1030
0E1B F0                MOVX    @DPTR,A
0E1C A3                INC     DPTR
0E1D 7400        R     MOV     A,#LOW ?SC_1030
0E1F F0                MOVX    @DPTR,A
0E20 E500        R     MOV     A,i+01H
0E22 2401              ADD     A,#01H
0E24 900000      E     MOV     DPTR,#?_sprintf?BYTE+07H
0E27 F0                MOVX    @DPTR,A
0E28 E4                CLR     A
0E29 3500        R     ADDC    A,i
0E2B 900000      E     MOV     DPTR,#?_sprintf?BYTE+06H
0E2E F0                MOVX    @DPTR,A
0E2F E500        R     MOV     A,i+01H
0E31 AE00        R     MOV     R6,i
0E33 7802              MOV     R0,#02H
0E35         ?C0429:
0E35 C3                CLR     C
0E36 33                RLC     A
0E37 CE                XCH     A,R6
0E38 33                RLC     A
0E39 CE                XCH     A,R6
0E3A D8F9              DJNZ    R0,?C0429
0E3C 2400        E     ADD     A,#LOW c_mem+04BH
0E3E F582              MOV     DPL,A
0E40 7400        E     MOV     A,#HIGH c_mem+04BH
0E42 3E                ADDC    A,R6
0E43 F583              MOV     DPH,A
0E45 E0                MOVX    A,@DPTR
0E46 FC                MOV     R4,A
0E47 A3                INC     DPTR
0E48 E0                MOVX    A,@DPTR
0E49 FD                MOV     R5,A
0E4A A3                INC     DPTR
0E4B E0                MOVX    A,@DPTR
0E4C FE                MOV     R6,A
0E4D A3                INC     DPTR
0E4E E0                MOVX    A,@DPTR
0E4F FF                MOV     R7,A
0E50 900000      E     MOV     DPTR,#?_sprintf?BYTE+08H
0E53 120000      E     LCALL   ?C?LSTXDATA
0E56 7B01              MOV     R3,#01H
0E58 7A00        R     MOV     R2,#HIGH str
0E5A 7900        R     MOV     R1,#LOW str
0E5C 120000      E     LCALL   _sprintf
                                           ; SOURCE LINE # 1049
0E5F 900000      E     MOV     DPTR,#?_strcat?BYTE+03H
0E62 7401              MOV     A,#01H
0E64 F0                MOVX    @DPTR,A
0E65 A3                INC     DPTR
0E66 7400        R     MOV     A,#HIGH str
0E68 F0                MOVX    @DPTR,A
0E69 A3                INC     DPTR
C51 COMPILER V9.51   COMMAND_PROCESSING                                                    02/07/2017 16:12:02 PAGE 151 

0E6A 7400        R     MOV     A,#LOW str
0E6C F0                MOVX    @DPTR,A
0E6D 900000      R     MOV     DPTR,#info_string
0E70 E0                MOVX    A,@DPTR
0E71 FB                MOV     R3,A
0E72 A3                INC     DPTR
0E73 E0                MOVX    A,@DPTR
0E74 FA                MOV     R2,A
0E75 A3                INC     DPTR
0E76 E0                MOVX    A,@DPTR
0E77 F9                MOV     R1,A
0E78 120000      E     LCALL   _strcat
                                           ; SOURCE LINE # 1050
0E7B 900000      E     MOV     DPTR,#?_strcat?BYTE+03H
0E7E 74FF              MOV     A,#0FFH
0E80 F0                MOVX    @DPTR,A
0E81 A3                INC     DPTR
0E82 7400        R     MOV     A,#HIGH ?SC_153
0E84 F0                MOVX    @DPTR,A
0E85 A3                INC     DPTR
0E86 7400        R     MOV     A,#LOW ?SC_153
0E88 F0                MOVX    @DPTR,A
0E89 900000      R     MOV     DPTR,#info_string
0E8C E0                MOVX    A,@DPTR
0E8D FB                MOV     R3,A
0E8E A3                INC     DPTR
0E8F E0                MOVX    A,@DPTR
0E90 FA                MOV     R2,A
0E91 A3                INC     DPTR
0E92 E0                MOVX    A,@DPTR
0E93 F9                MOV     R1,A
0E94 120000      E     LCALL   _strcat
                                           ; SOURCE LINE # 1051
0E97 0500        R     INC     i+01H
0E99 E500        R     MOV     A,i+01H
0E9B 7002              JNZ     ?C0430
0E9D 0500        R     INC     i
0E9F         ?C0430:
0E9F 020000      R     LJMP    ?C0262
0EA2         ?C0263:
                                           ; SOURCE LINE # 1053
0EA2 900000      E     MOV     DPTR,#?_sprintf?BYTE+03H
0EA5 74FF              MOV     A,#0FFH
0EA7 F0                MOVX    @DPTR,A
0EA8 A3                INC     DPTR
0EA9 7400        R     MOV     A,#HIGH ?SC_1039
0EAB F0                MOVX    @DPTR,A
0EAC A3                INC     DPTR
0EAD 7400        R     MOV     A,#LOW ?SC_1039
0EAF F0                MOVX    @DPTR,A
0EB0 900000      E     MOV     DPTR,#c_mem+05BH
0EB3 E0                MOVX    A,@DPTR
0EB4 FF                MOV     R7,A
0EB5 900000      E     MOV     DPTR,#?_sprintf?BYTE+06H
0EB8 E4                CLR     A
0EB9 F0                MOVX    @DPTR,A
0EBA A3                INC     DPTR
0EBB EF                MOV     A,R7
0EBC F0                MOVX    @DPTR,A
0EBD 7B01              MOV     R3,#01H
0EBF 7A00        R     MOV     R2,#HIGH str
0EC1 7900        R     MOV     R1,#LOW str
C51 COMPILER V9.51   COMMAND_PROCESSING                                                    02/07/2017 16:12:02 PAGE 152 

0EC3 120000      E     LCALL   _sprintf
                                           ; SOURCE LINE # 1054
0EC6 900000      E     MOV     DPTR,#?_strcat?BYTE+03H
0EC9 7401              MOV     A,#01H
0ECB F0                MOVX    @DPTR,A
0ECC A3                INC     DPTR
0ECD 7400        R     MOV     A,#HIGH str
0ECF F0                MOVX    @DPTR,A
0ED0 A3                INC     DPTR
0ED1 7400        R     MOV     A,#LOW str
0ED3 F0                MOVX    @DPTR,A
0ED4 900000      R     MOV     DPTR,#info_string
0ED7 E0                MOVX    A,@DPTR
0ED8 FB                MOV     R3,A
0ED9 A3                INC     DPTR
0EDA E0                MOVX    A,@DPTR
0EDB FA                MOV     R2,A
0EDC A3                INC     DPTR
0EDD E0                MOVX    A,@DPTR
0EDE F9                MOV     R1,A
0EDF 120000      E     LCALL   _strcat
                                           ; SOURCE LINE # 1055
0EE2 900000      E     MOV     DPTR,#?_strcat?BYTE+03H
0EE5 74FF              MOV     A,#0FFH
0EE7 F0                MOVX    @DPTR,A
0EE8 A3                INC     DPTR
0EE9 7400        R     MOV     A,#HIGH ?SC_153
0EEB F0                MOVX    @DPTR,A
0EEC A3                INC     DPTR
0EED 7400        R     MOV     A,#LOW ?SC_153
0EEF F0                MOVX    @DPTR,A
0EF0 900000      R     MOV     DPTR,#info_string
0EF3 E0                MOVX    A,@DPTR
0EF4 FB                MOV     R3,A
0EF5 A3                INC     DPTR
0EF6 E0                MOVX    A,@DPTR
0EF7 FA                MOV     R2,A
0EF8 A3                INC     DPTR
0EF9 E0                MOVX    A,@DPTR
0EFA F9                MOV     R1,A
0EFB 120000      E     LCALL   _strcat
                                           ; SOURCE LINE # 1057
0EFE E4                CLR     A
0EFF F500        R     MOV     i,A
0F01 F500        R     MOV     i+01H,A
0F03         ?C0265:
0F03 C3                CLR     C
0F04 E500        R     MOV     A,i+01H
0F06 9402              SUBB    A,#02H
0F08 E500        R     MOV     A,i
0F0A 6480              XRL     A,#080H
0F0C 9480              SUBB    A,#080H
0F0E 4003              JC      $ + 5H
0F10 020000      R     LJMP    ?C0266
                                           ; SOURCE LINE # 1059
0F13 900000      E     MOV     DPTR,#?_sprintf?BYTE+03H
0F16 74FF              MOV     A,#0FFH
0F18 F0                MOVX    @DPTR,A
0F19 A3                INC     DPTR
0F1A 7400        R     MOV     A,#HIGH ?SC_1065
0F1C F0                MOVX    @DPTR,A
0F1D A3                INC     DPTR
C51 COMPILER V9.51   COMMAND_PROCESSING                                                    02/07/2017 16:12:02 PAGE 153 

0F1E 7400        R     MOV     A,#LOW ?SC_1065
0F20 F0                MOVX    @DPTR,A
0F21 E500        R     MOV     A,i+01H
0F23 2401              ADD     A,#01H
0F25 900000      E     MOV     DPTR,#?_sprintf?BYTE+07H
0F28 F0                MOVX    @DPTR,A
0F29 E4                CLR     A
0F2A 3500        R     ADDC    A,i
0F2C 900000      E     MOV     DPTR,#?_sprintf?BYTE+06H
0F2F F0                MOVX    @DPTR,A
0F30 E500        R     MOV     A,i+01H
0F32 AE00        R     MOV     R6,i
0F34 7802              MOV     R0,#02H
0F36         ?C0431:
0F36 C3                CLR     C
0F37 33                RLC     A
0F38 CE                XCH     A,R6
0F39 33                RLC     A
0F3A CE                XCH     A,R6
0F3B D8F9              DJNZ    R0,?C0431
0F3D 2400        E     ADD     A,#LOW c_mem+05CH
0F3F F582              MOV     DPL,A
0F41 7400        E     MOV     A,#HIGH c_mem+05CH
0F43 3E                ADDC    A,R6
0F44 F583              MOV     DPH,A
0F46 E0                MOVX    A,@DPTR
0F47 FC                MOV     R4,A
0F48 A3                INC     DPTR
0F49 E0                MOVX    A,@DPTR
0F4A FD                MOV     R5,A
0F4B A3                INC     DPTR
0F4C E0                MOVX    A,@DPTR
0F4D FE                MOV     R6,A
0F4E A3                INC     DPTR
0F4F E0                MOVX    A,@DPTR
0F50 FF                MOV     R7,A
0F51 7400        E     MOV     A,#LOW c_mem+037H
0F53 2500        R     ADD     A,i+01H
0F55 F582              MOV     DPL,A
0F57 7400        E     MOV     A,#HIGH c_mem+037H
0F59 3500        R     ADDC    A,i
0F5B F583              MOV     DPH,A
0F5D E0                MOVX    A,@DPTR
0F5E F9                MOV     R1,A
0F5F F8                MOV     R0,A
0F60 120000      E     LCALL   ?C?SLSHR
0F63 900000      E     MOV     DPTR,#?_sprintf?BYTE+08H
0F66 120000      E     LCALL   ?C?LSTXDATA
0F69 7B01              MOV     R3,#01H
0F6B 7A00        R     MOV     R2,#HIGH str
0F6D 7900        R     MOV     R1,#LOW str
0F6F 120000      E     LCALL   _sprintf
                                           ; SOURCE LINE # 1060
0F72 900000      E     MOV     DPTR,#?_strcat?BYTE+03H
0F75 7401              MOV     A,#01H
0F77 F0                MOVX    @DPTR,A
0F78 A3                INC     DPTR
0F79 7400        R     MOV     A,#HIGH str
0F7B F0                MOVX    @DPTR,A
0F7C A3                INC     DPTR
0F7D 7400        R     MOV     A,#LOW str
0F7F F0                MOVX    @DPTR,A
C51 COMPILER V9.51   COMMAND_PROCESSING                                                    02/07/2017 16:12:02 PAGE 154 

0F80 900000      R     MOV     DPTR,#info_string
0F83 E0                MOVX    A,@DPTR
0F84 FB                MOV     R3,A
0F85 A3                INC     DPTR
0F86 E0                MOVX    A,@DPTR
0F87 FA                MOV     R2,A
0F88 A3                INC     DPTR
0F89 E0                MOVX    A,@DPTR
0F8A F9                MOV     R1,A
0F8B 120000      E     LCALL   _strcat
                                           ; SOURCE LINE # 1063
0F8E 900000      E     MOV     DPTR,#?_sprintf?BYTE+03H
0F91 74FF              MOV     A,#0FFH
0F93 F0                MOVX    @DPTR,A
0F94 A3                INC     DPTR
0F95 7400        R     MOV     A,#HIGH ?SC_1103
0F97 F0                MOVX    @DPTR,A
0F98 A3                INC     DPTR
0F99 7400        R     MOV     A,#LOW ?SC_1103
0F9B F0                MOVX    @DPTR,A
0F9C E500        R     MOV     A,i+01H
0F9E AE00        R     MOV     R6,i
0FA0 7802              MOV     R0,#02H
0FA2         ?C0432:
0FA2 C3                CLR     C
0FA3 33                RLC     A
0FA4 CE                XCH     A,R6
0FA5 33                RLC     A
0FA6 CE                XCH     A,R6
0FA7 D8F9              DJNZ    R0,?C0432
0FA9 2400        E     ADD     A,#LOW c_mem+064H
0FAB F582              MOV     DPL,A
0FAD 7400        E     MOV     A,#HIGH c_mem+064H
0FAF 3E                ADDC    A,R6
0FB0 F583              MOV     DPH,A
0FB2 E0                MOVX    A,@DPTR
0FB3 FC                MOV     R4,A
0FB4 A3                INC     DPTR
0FB5 E0                MOVX    A,@DPTR
0FB6 FD                MOV     R5,A
0FB7 A3                INC     DPTR
0FB8 E0                MOVX    A,@DPTR
0FB9 FE                MOV     R6,A
0FBA A3                INC     DPTR
0FBB E0                MOVX    A,@DPTR
0FBC FF                MOV     R7,A
0FBD 7400        E     MOV     A,#LOW c_mem+037H
0FBF 2500        R     ADD     A,i+01H
0FC1 F582              MOV     DPL,A
0FC3 7400        E     MOV     A,#HIGH c_mem+037H
0FC5 3500        R     ADDC    A,i
0FC7 F583              MOV     DPH,A
0FC9 E0                MOVX    A,@DPTR
0FCA F9                MOV     R1,A
0FCB F8                MOV     R0,A
0FCC 120000      E     LCALL   ?C?SLSHR
0FCF 900000      E     MOV     DPTR,#?_sprintf?BYTE+06H
0FD2 120000      E     LCALL   ?C?LSTXDATA
0FD5 7B01              MOV     R3,#01H
0FD7 7A00        R     MOV     R2,#HIGH str
0FD9 7900        R     MOV     R1,#LOW str
0FDB 120000      E     LCALL   _sprintf
C51 COMPILER V9.51   COMMAND_PROCESSING                                                    02/07/2017 16:12:02 PAGE 155 

                                           ; SOURCE LINE # 1064
0FDE 900000      E     MOV     DPTR,#?_strcat?BYTE+03H
0FE1 7401              MOV     A,#01H
0FE3 F0                MOVX    @DPTR,A
0FE4 A3                INC     DPTR
0FE5 7400        R     MOV     A,#HIGH str
0FE7 F0                MOVX    @DPTR,A
0FE8 A3                INC     DPTR
0FE9 7400        R     MOV     A,#LOW str
0FEB F0                MOVX    @DPTR,A
0FEC 900000      R     MOV     DPTR,#info_string
0FEF E0                MOVX    A,@DPTR
0FF0 FB                MOV     R3,A
0FF1 A3                INC     DPTR
0FF2 E0                MOVX    A,@DPTR
0FF3 FA                MOV     R2,A
0FF4 A3                INC     DPTR
0FF5 E0                MOVX    A,@DPTR
0FF6 F9                MOV     R1,A
0FF7 120000      E     LCALL   _strcat
                                           ; SOURCE LINE # 1065
0FFA 0500        R     INC     i+01H
0FFC E500        R     MOV     A,i+01H
0FFE 7002              JNZ     ?C0433
1000 0500        R     INC     i
1002         ?C0433:
1002 020000      R     LJMP    ?C0265
1005         ?C0266:
                                           ; SOURCE LINE # 1067
1005 900000      E     MOV     DPTR,#?_sprintf?BYTE+03H
1008 74FF              MOV     A,#0FFH
100A F0                MOVX    @DPTR,A
100B A3                INC     DPTR
100C 7400        R     MOV     A,#HIGH ?SC_1116
100E F0                MOVX    @DPTR,A
100F A3                INC     DPTR
1010 7400        R     MOV     A,#LOW ?SC_1116
1012 F0                MOVX    @DPTR,A
1013 900000      E     MOV     DPTR,#c_mem+072H
1016 E0                MOVX    A,@DPTR
1017 A3                INC     DPTR
1018 E0                MOVX    A,@DPTR
1019 A3                INC     DPTR
101A E0                MOVX    A,@DPTR
101B FF                MOV     R7,A
101C A3                INC     DPTR
101D E0                MOVX    A,@DPTR
101E 900000      E     MOV     DPTR,#?_sprintf?BYTE+06H
1021 CF                XCH     A,R7
1022 F0                MOVX    @DPTR,A
1023 A3                INC     DPTR
1024 EF                MOV     A,R7
1025 F0                MOVX    @DPTR,A
1026 900000      E     MOV     DPTR,#c_mem+06EH
1029 E0                MOVX    A,@DPTR
102A A3                INC     DPTR
102B E0                MOVX    A,@DPTR
102C A3                INC     DPTR
102D E0                MOVX    A,@DPTR
102E FF                MOV     R7,A
102F A3                INC     DPTR
1030 E0                MOVX    A,@DPTR
C51 COMPILER V9.51   COMMAND_PROCESSING                                                    02/07/2017 16:12:02 PAGE 156 

1031 900000      E     MOV     DPTR,#?_sprintf?BYTE+08H
1034 CF                XCH     A,R7
1035 F0                MOVX    @DPTR,A
1036 A3                INC     DPTR
1037 EF                MOV     A,R7
1038 F0                MOVX    @DPTR,A
1039 7B01              MOV     R3,#01H
103B 7A00        R     MOV     R2,#HIGH str
103D 7900        R     MOV     R1,#LOW str
103F 120000      E     LCALL   _sprintf
                                           ; SOURCE LINE # 1068
1042 900000      E     MOV     DPTR,#?_strcat?BYTE+03H
1045 7401              MOV     A,#01H
1047 F0                MOVX    @DPTR,A
1048 A3                INC     DPTR
1049 7400        R     MOV     A,#HIGH str
104B F0                MOVX    @DPTR,A
104C A3                INC     DPTR
104D 7400        R     MOV     A,#LOW str
104F F0                MOVX    @DPTR,A
1050 900000      R     MOV     DPTR,#info_string
1053 E0                MOVX    A,@DPTR
1054 FB                MOV     R3,A
1055 A3                INC     DPTR
1056 E0                MOVX    A,@DPTR
1057 FA                MOV     R2,A
1058 A3                INC     DPTR
1059 E0                MOVX    A,@DPTR
105A F9                MOV     R1,A
105B 120000      E     LCALL   _strcat
                                           ; SOURCE LINE # 1069
105E 900000      E     MOV     DPTR,#?_strcat?BYTE+03H
1061 74FF              MOV     A,#0FFH
1063 F0                MOVX    @DPTR,A
1064 A3                INC     DPTR
1065 7400        R     MOV     A,#HIGH ?SC_153
1067 F0                MOVX    @DPTR,A
1068 A3                INC     DPTR
1069 7400        R     MOV     A,#LOW ?SC_153
106B F0                MOVX    @DPTR,A
106C 900000      R     MOV     DPTR,#info_string
106F E0                MOVX    A,@DPTR
1070 FB                MOV     R3,A
1071 A3                INC     DPTR
1072 E0                MOVX    A,@DPTR
1073 FA                MOV     R2,A
1074 A3                INC     DPTR
1075 E0                MOVX    A,@DPTR
1076 F9                MOV     R1,A
1077 120000      E     LCALL   _strcat
                                           ; SOURCE LINE # 1071
107A 900000      E     MOV     DPTR,#?_sprintf?BYTE+03H
107D 74FF              MOV     A,#0FFH
107F F0                MOVX    @DPTR,A
1080 A3                INC     DPTR
1081 7400        R     MOV     A,#HIGH ?SC_1144
1083 F0                MOVX    @DPTR,A
1084 A3                INC     DPTR
1085 7400        R     MOV     A,#LOW ?SC_1144
1087 F0                MOVX    @DPTR,A
1088 900000      E     MOV     DPTR,#c_mem+032H
108B E0                MOVX    A,@DPTR
C51 COMPILER V9.51   COMMAND_PROCESSING                                                    02/07/2017 16:12:02 PAGE 157 

108C FF                MOV     R7,A
108D A3                INC     DPTR
108E E0                MOVX    A,@DPTR
108F 900000      E     MOV     DPTR,#?_sprintf?BYTE+06H
1092 CF                XCH     A,R7
1093 F0                MOVX    @DPTR,A
1094 A3                INC     DPTR
1095 EF                MOV     A,R7
1096 F0                MOVX    @DPTR,A
1097 7B01              MOV     R3,#01H
1099 7A00        R     MOV     R2,#HIGH str
109B 7900        R     MOV     R1,#LOW str
109D 120000      E     LCALL   _sprintf
                                           ; SOURCE LINE # 1072
10A0 900000      E     MOV     DPTR,#?_strcat?BYTE+03H
10A3 7401              MOV     A,#01H
10A5 F0                MOVX    @DPTR,A
10A6 A3                INC     DPTR
10A7 7400        R     MOV     A,#HIGH str
10A9 F0                MOVX    @DPTR,A
10AA A3                INC     DPTR
10AB 7400        R     MOV     A,#LOW str
10AD F0                MOVX    @DPTR,A
10AE 900000      R     MOV     DPTR,#info_string
10B1 E0                MOVX    A,@DPTR
10B2 FB                MOV     R3,A
10B3 A3                INC     DPTR
10B4 E0                MOVX    A,@DPTR
10B5 FA                MOV     R2,A
10B6 A3                INC     DPTR
10B7 E0                MOVX    A,@DPTR
10B8 F9                MOV     R1,A
10B9 120000      E     LCALL   _strcat
                                           ; SOURCE LINE # 1073
10BC 900000      E     MOV     DPTR,#?_strcat?BYTE+03H
10BF 74FF              MOV     A,#0FFH
10C1 F0                MOVX    @DPTR,A
10C2 A3                INC     DPTR
10C3 7400        R     MOV     A,#HIGH ?SC_153
10C5 F0                MOVX    @DPTR,A
10C6 A3                INC     DPTR
10C7 7400        R     MOV     A,#LOW ?SC_153
10C9 F0                MOVX    @DPTR,A
10CA 900000      R     MOV     DPTR,#info_string
10CD E0                MOVX    A,@DPTR
10CE FB                MOV     R3,A
10CF A3                INC     DPTR
10D0 E0                MOVX    A,@DPTR
10D1 FA                MOV     R2,A
10D2 A3                INC     DPTR
10D3 E0                MOVX    A,@DPTR
10D4 F9                MOV     R1,A
10D5 120000      E     LCALL   _strcat
                                           ; SOURCE LINE # 1075
10D8 900000      E     MOV     DPTR,#?_strcat?BYTE+03H
10DB 74FF              MOV     A,#0FFH
10DD F0                MOVX    @DPTR,A
10DE A3                INC     DPTR
10DF 7400        R     MOV     A,#HIGH ?SC_153
10E1 F0                MOVX    @DPTR,A
10E2 A3                INC     DPTR
10E3 7400        R     MOV     A,#LOW ?SC_153
C51 COMPILER V9.51   COMMAND_PROCESSING                                                    02/07/2017 16:12:02 PAGE 158 

10E5 F0                MOVX    @DPTR,A
10E6 900000      R     MOV     DPTR,#info_string
10E9 E0                MOVX    A,@DPTR
10EA FB                MOV     R3,A
10EB A3                INC     DPTR
10EC E0                MOVX    A,@DPTR
10ED FA                MOV     R2,A
10EE A3                INC     DPTR
10EF E0                MOVX    A,@DPTR
10F0 F9                MOV     R1,A
10F1 120000      E     LCALL   _strcat
                                           ; SOURCE LINE # 1077
10F4 900000      E     MOV     DPTR,#?_sprintf?BYTE+03H
10F7 74FF              MOV     A,#0FFH
10F9 F0                MOVX    @DPTR,A
10FA A3                INC     DPTR
10FB 7400        R     MOV     A,#HIGH ?SC_1162
10FD F0                MOVX    @DPTR,A
10FE A3                INC     DPTR
10FF 7400        R     MOV     A,#LOW ?SC_1162
1101 F0                MOVX    @DPTR,A
1102 900000      E     MOV     DPTR,#c_mem+09FH
1105 E0                MOVX    A,@DPTR
1106 FF                MOV     R7,A
1107 A3                INC     DPTR
1108 E0                MOVX    A,@DPTR
1109 900000      E     MOV     DPTR,#?_sprintf?BYTE+06H
110C CF                XCH     A,R7
110D F0                MOVX    @DPTR,A
110E A3                INC     DPTR
110F EF                MOV     A,R7
1110 F0                MOVX    @DPTR,A
1111 7B01              MOV     R3,#01H
1113 7A00        R     MOV     R2,#HIGH str
1115 7900        R     MOV     R1,#LOW str
1117 120000      E     LCALL   _sprintf
                                           ; SOURCE LINE # 1078
111A 900000      E     MOV     DPTR,#?_strcat?BYTE+03H
111D 7401              MOV     A,#01H
111F F0                MOVX    @DPTR,A
1120 A3                INC     DPTR
1121 7400        R     MOV     A,#HIGH str
1123 F0                MOVX    @DPTR,A
1124 A3                INC     DPTR
1125 7400        R     MOV     A,#LOW str
1127 F0                MOVX    @DPTR,A
1128 900000      R     MOV     DPTR,#info_string
112B E0                MOVX    A,@DPTR
112C FB                MOV     R3,A
112D A3                INC     DPTR
112E E0                MOVX    A,@DPTR
112F FA                MOV     R2,A
1130 A3                INC     DPTR
1131 E0                MOVX    A,@DPTR
1132 F9                MOV     R1,A
1133 120000      E     LCALL   _strcat
                                           ; SOURCE LINE # 1079
1136 900000      E     MOV     DPTR,#?_strcat?BYTE+03H
1139 74FF              MOV     A,#0FFH
113B F0                MOVX    @DPTR,A
113C A3                INC     DPTR
113D 7400        R     MOV     A,#HIGH ?SC_153
C51 COMPILER V9.51   COMMAND_PROCESSING                                                    02/07/2017 16:12:02 PAGE 159 

113F F0                MOVX    @DPTR,A
1140 A3                INC     DPTR
1141 7400        R     MOV     A,#LOW ?SC_153
1143 F0                MOVX    @DPTR,A
1144 900000      R     MOV     DPTR,#info_string
1147 E0                MOVX    A,@DPTR
1148 FB                MOV     R3,A
1149 A3                INC     DPTR
114A E0                MOVX    A,@DPTR
114B FA                MOV     R2,A
114C A3                INC     DPTR
114D E0                MOVX    A,@DPTR
114E F9                MOV     R1,A
114F 120000      E     LCALL   _strcat
                                           ; SOURCE LINE # 1081
1152 900000      E     MOV     DPTR,#?_sprintf?BYTE+03H
1155 74FF              MOV     A,#0FFH
1157 F0                MOVX    @DPTR,A
1158 A3                INC     DPTR
1159 7400        R     MOV     A,#HIGH ?SC_1180
115B F0                MOVX    @DPTR,A
115C A3                INC     DPTR
115D 7400        R     MOV     A,#LOW ?SC_1180
115F F0                MOVX    @DPTR,A
1160 900000      E     MOV     DPTR,#c_mem+0A1H
1163 E0                MOVX    A,@DPTR
1164 FF                MOV     R7,A
1165 A3                INC     DPTR
1166 E0                MOVX    A,@DPTR
1167 900000      E     MOV     DPTR,#?_sprintf?BYTE+06H
116A CF                XCH     A,R7
116B F0                MOVX    @DPTR,A
116C A3                INC     DPTR
116D EF                MOV     A,R7
116E F0                MOVX    @DPTR,A
116F 7B01              MOV     R3,#01H
1171 7A00        R     MOV     R2,#HIGH str
1173 7900        R     MOV     R1,#LOW str
1175 120000      E     LCALL   _sprintf
                                           ; SOURCE LINE # 1082
1178 900000      E     MOV     DPTR,#?_strcat?BYTE+03H
117B 7401              MOV     A,#01H
117D F0                MOVX    @DPTR,A
117E A3                INC     DPTR
117F 7400        R     MOV     A,#HIGH str
1181 F0                MOVX    @DPTR,A
1182 A3                INC     DPTR
1183 7400        R     MOV     A,#LOW str
1185 F0                MOVX    @DPTR,A
1186 900000      R     MOV     DPTR,#info_string
1189 E0                MOVX    A,@DPTR
118A FB                MOV     R3,A
118B A3                INC     DPTR
118C E0                MOVX    A,@DPTR
118D FA                MOV     R2,A
118E A3                INC     DPTR
118F E0                MOVX    A,@DPTR
1190 F9                MOV     R1,A
1191 120000      E     LCALL   _strcat
                                           ; SOURCE LINE # 1083
1194 900000      E     MOV     DPTR,#?_strcat?BYTE+03H
1197 74FF              MOV     A,#0FFH
C51 COMPILER V9.51   COMMAND_PROCESSING                                                    02/07/2017 16:12:02 PAGE 160 

1199 F0                MOVX    @DPTR,A
119A A3                INC     DPTR
119B 7400        R     MOV     A,#HIGH ?SC_153
119D F0                MOVX    @DPTR,A
119E A3                INC     DPTR
119F 7400        R     MOV     A,#LOW ?SC_153
11A1 F0                MOVX    @DPTR,A
11A2 900000      R     MOV     DPTR,#info_string
11A5 E0                MOVX    A,@DPTR
11A6 FB                MOV     R3,A
11A7 A3                INC     DPTR
11A8 E0                MOVX    A,@DPTR
11A9 FA                MOV     R2,A
11AA A3                INC     DPTR
11AB E0                MOVX    A,@DPTR
11AC F9                MOV     R1,A
11AD 120000      E     LCALL   _strcat
                                           ; SOURCE LINE # 1084
11B0 900000      E     MOV     DPTR,#?_sprintf?BYTE+03H
11B3 74FF              MOV     A,#0FFH
11B5 F0                MOVX    @DPTR,A
11B6 A3                INC     DPTR
11B7 7400        R     MOV     A,#HIGH ?SC_1203
11B9 F0                MOVX    @DPTR,A
11BA A3                INC     DPTR
11BB 7400        R     MOV     A,#LOW ?SC_1203
11BD F0                MOVX    @DPTR,A
11BE 900000      E     MOV     DPTR,#c_mem+0A3H
11C1 E0                MOVX    A,@DPTR
11C2 FF                MOV     R7,A
11C3 A3                INC     DPTR
11C4 E0                MOVX    A,@DPTR
11C5 900000      E     MOV     DPTR,#?_sprintf?BYTE+06H
11C8 CF                XCH     A,R7
11C9 F0                MOVX    @DPTR,A
11CA A3                INC     DPTR
11CB EF                MOV     A,R7
11CC F0                MOVX    @DPTR,A
11CD 900000      E     MOV     DPTR,#c_mem+0A5H
11D0 E0                MOVX    A,@DPTR
11D1 FF                MOV     R7,A
11D2 A3                INC     DPTR
11D3 E0                MOVX    A,@DPTR
11D4 900000      E     MOV     DPTR,#?_sprintf?BYTE+08H
11D7 CF                XCH     A,R7
11D8 F0                MOVX    @DPTR,A
11D9 A3                INC     DPTR
11DA EF                MOV     A,R7
11DB F0                MOVX    @DPTR,A
11DC 7B01              MOV     R3,#01H
11DE 7A00        R     MOV     R2,#HIGH str
11E0 7900        R     MOV     R1,#LOW str
11E2 120000      E     LCALL   _sprintf
                                           ; SOURCE LINE # 1085
11E5 900000      E     MOV     DPTR,#?_strcat?BYTE+03H
11E8 7401              MOV     A,#01H
11EA F0                MOVX    @DPTR,A
11EB A3                INC     DPTR
11EC 7400        R     MOV     A,#HIGH str
11EE F0                MOVX    @DPTR,A
11EF A3                INC     DPTR
11F0 7400        R     MOV     A,#LOW str
C51 COMPILER V9.51   COMMAND_PROCESSING                                                    02/07/2017 16:12:02 PAGE 161 

11F2 F0                MOVX    @DPTR,A
11F3 900000      R     MOV     DPTR,#info_string
11F6 E0                MOVX    A,@DPTR
11F7 FB                MOV     R3,A
11F8 A3                INC     DPTR
11F9 E0                MOVX    A,@DPTR
11FA FA                MOV     R2,A
11FB A3                INC     DPTR
11FC E0                MOVX    A,@DPTR
11FD F9                MOV     R1,A
11FE 120000      E     LCALL   _strcat
                                           ; SOURCE LINE # 1086
1201 900000      E     MOV     DPTR,#?_strcat?BYTE+03H
1204 74FF              MOV     A,#0FFH
1206 F0                MOVX    @DPTR,A
1207 A3                INC     DPTR
1208 7400        R     MOV     A,#HIGH ?SC_153
120A F0                MOVX    @DPTR,A
120B A3                INC     DPTR
120C 7400        R     MOV     A,#LOW ?SC_153
120E F0                MOVX    @DPTR,A
120F 900000      R     MOV     DPTR,#info_string
1212 E0                MOVX    A,@DPTR
1213 FB                MOV     R3,A
1214 A3                INC     DPTR
1215 E0                MOVX    A,@DPTR
1216 FA                MOV     R2,A
1217 A3                INC     DPTR
1218 E0                MOVX    A,@DPTR
1219 F9                MOV     R1,A
121A 120000      E     LCALL   _strcat
                                           ; SOURCE LINE # 1088
121D 900000      E     MOV     DPTR,#?_strcat?BYTE+03H
1220 74FF              MOV     A,#0FFH
1222 F0                MOVX    @DPTR,A
1223 A3                INC     DPTR
1224 7400        R     MOV     A,#HIGH ?SC_153
1226 F0                MOVX    @DPTR,A
1227 A3                INC     DPTR
1228 7400        R     MOV     A,#LOW ?SC_153
122A F0                MOVX    @DPTR,A
122B 900000      R     MOV     DPTR,#info_string
122E E0                MOVX    A,@DPTR
122F FB                MOV     R3,A
1230 A3                INC     DPTR
1231 E0                MOVX    A,@DPTR
1232 FA                MOV     R2,A
1233 A3                INC     DPTR
1234 E0                MOVX    A,@DPTR
1235 F9                MOV     R1,A
1236 120000      E     LCALL   _strcat
                                           ; SOURCE LINE # 1090
1239 900000      E     MOV     DPTR,#?_sprintf?BYTE+03H
123C 74FF              MOV     A,#0FFH
123E F0                MOVX    @DPTR,A
123F A3                INC     DPTR
1240 7400        R     MOV     A,#HIGH ?SC_1233
1242 F0                MOVX    @DPTR,A
1243 A3                INC     DPTR
1244 7400        R     MOV     A,#LOW ?SC_1233
1246 F0                MOVX    @DPTR,A
1247 900000      E     MOV     DPTR,#c_mem+076H
C51 COMPILER V9.51   COMMAND_PROCESSING                                                    02/07/2017 16:12:02 PAGE 162 

124A E0                MOVX    A,@DPTR
124B FF                MOV     R7,A
124C A3                INC     DPTR
124D E0                MOVX    A,@DPTR
124E 900000      E     MOV     DPTR,#?_sprintf?BYTE+06H
1251 CF                XCH     A,R7
1252 F0                MOVX    @DPTR,A
1253 A3                INC     DPTR
1254 EF                MOV     A,R7
1255 F0                MOVX    @DPTR,A
1256 900000      E     MOV     DPTR,#c_mem+078H
1259 E0                MOVX    A,@DPTR
125A FF                MOV     R7,A
125B A3                INC     DPTR
125C E0                MOVX    A,@DPTR
125D 900000      E     MOV     DPTR,#?_sprintf?BYTE+08H
1260 CF                XCH     A,R7
1261 F0                MOVX    @DPTR,A
1262 A3                INC     DPTR
1263 EF                MOV     A,R7
1264 F0                MOVX    @DPTR,A
1265 7B01              MOV     R3,#01H
1267 7A00        R     MOV     R2,#HIGH str
1269 7900        R     MOV     R1,#LOW str
126B 120000      E     LCALL   _sprintf
                                           ; SOURCE LINE # 1091
126E 900000      E     MOV     DPTR,#?_strcat?BYTE+03H
1271 7401              MOV     A,#01H
1273 F0                MOVX    @DPTR,A
1274 A3                INC     DPTR
1275 7400        R     MOV     A,#HIGH str
1277 F0                MOVX    @DPTR,A
1278 A3                INC     DPTR
1279 7400        R     MOV     A,#LOW str
127B F0                MOVX    @DPTR,A
127C 900000      R     MOV     DPTR,#info_string
127F E0                MOVX    A,@DPTR
1280 FB                MOV     R3,A
1281 A3                INC     DPTR
1282 E0                MOVX    A,@DPTR
1283 FA                MOV     R2,A
1284 A3                INC     DPTR
1285 E0                MOVX    A,@DPTR
1286 F9                MOV     R1,A
1287 120000      E     LCALL   _strcat
                                           ; SOURCE LINE # 1092
128A 900000      E     MOV     DPTR,#?_strcat?BYTE+03H
128D 74FF              MOV     A,#0FFH
128F F0                MOVX    @DPTR,A
1290 A3                INC     DPTR
1291 7400        R     MOV     A,#HIGH ?SC_153
1293 F0                MOVX    @DPTR,A
1294 A3                INC     DPTR
1295 7400        R     MOV     A,#LOW ?SC_153
1297 F0                MOVX    @DPTR,A
1298 900000      R     MOV     DPTR,#info_string
129B E0                MOVX    A,@DPTR
129C FB                MOV     R3,A
129D A3                INC     DPTR
129E E0                MOVX    A,@DPTR
129F FA                MOV     R2,A
12A0 A3                INC     DPTR
C51 COMPILER V9.51   COMMAND_PROCESSING                                                    02/07/2017 16:12:02 PAGE 163 

12A1 E0                MOVX    A,@DPTR
12A2 F9                MOV     R1,A
12A3 120000      E     LCALL   _strcat
                                           ; SOURCE LINE # 1094
12A6 900000      E     MOV     DPTR,#?_sprintf?BYTE+03H
12A9 74FF              MOV     A,#0FFH
12AB F0                MOVX    @DPTR,A
12AC A3                INC     DPTR
12AD 7400        R     MOV     A,#HIGH ?SC_1267
12AF F0                MOVX    @DPTR,A
12B0 A3                INC     DPTR
12B1 7400        R     MOV     A,#LOW ?SC_1267
12B3 F0                MOVX    @DPTR,A
12B4 900000      E     MOV     DPTR,#c_mem+07BH
12B7 E0                MOVX    A,@DPTR
12B8 FC                MOV     R4,A
12B9 A3                INC     DPTR
12BA E0                MOVX    A,@DPTR
12BB FD                MOV     R5,A
12BC A3                INC     DPTR
12BD E0                MOVX    A,@DPTR
12BE FE                MOV     R6,A
12BF A3                INC     DPTR
12C0 E0                MOVX    A,@DPTR
12C1 FF                MOV     R7,A
12C2 900000      E     MOV     DPTR,#?_sprintf?BYTE+06H
12C5 120000      E     LCALL   ?C?LSTXDATA
12C8 900000      E     MOV     DPTR,#c_mem+07FH
12CB E0                MOVX    A,@DPTR
12CC FC                MOV     R4,A
12CD A3                INC     DPTR
12CE E0                MOVX    A,@DPTR
12CF FD                MOV     R5,A
12D0 A3                INC     DPTR
12D1 E0                MOVX    A,@DPTR
12D2 FE                MOV     R6,A
12D3 A3                INC     DPTR
12D4 E0                MOVX    A,@DPTR
12D5 FF                MOV     R7,A
12D6 900000      E     MOV     DPTR,#?_sprintf?BYTE+0AH
12D9 120000      E     LCALL   ?C?LSTXDATA
12DC 7B01              MOV     R3,#01H
12DE 7A00        R     MOV     R2,#HIGH str
12E0 7900        R     MOV     R1,#LOW str
12E2 120000      E     LCALL   _sprintf
                                           ; SOURCE LINE # 1095
12E5 900000      E     MOV     DPTR,#?_strcat?BYTE+03H
12E8 7401              MOV     A,#01H
12EA F0                MOVX    @DPTR,A
12EB A3                INC     DPTR
12EC 7400        R     MOV     A,#HIGH str
12EE F0                MOVX    @DPTR,A
12EF A3                INC     DPTR
12F0 7400        R     MOV     A,#LOW str
12F2 F0                MOVX    @DPTR,A
12F3 900000      R     MOV     DPTR,#info_string
12F6 E0                MOVX    A,@DPTR
12F7 FB                MOV     R3,A
12F8 A3                INC     DPTR
12F9 E0                MOVX    A,@DPTR
12FA FA                MOV     R2,A
12FB A3                INC     DPTR
C51 COMPILER V9.51   COMMAND_PROCESSING                                                    02/07/2017 16:12:02 PAGE 164 

12FC E0                MOVX    A,@DPTR
12FD F9                MOV     R1,A
12FE 120000      E     LCALL   _strcat
                                           ; SOURCE LINE # 1096
1301 900000      E     MOV     DPTR,#?_strcat?BYTE+03H
1304 74FF              MOV     A,#0FFH
1306 F0                MOVX    @DPTR,A
1307 A3                INC     DPTR
1308 7400        R     MOV     A,#HIGH ?SC_153
130A F0                MOVX    @DPTR,A
130B A3                INC     DPTR
130C 7400        R     MOV     A,#LOW ?SC_153
130E F0                MOVX    @DPTR,A
130F 900000      R     MOV     DPTR,#info_string
1312 E0                MOVX    A,@DPTR
1313 FB                MOV     R3,A
1314 A3                INC     DPTR
1315 E0                MOVX    A,@DPTR
1316 FA                MOV     R2,A
1317 A3                INC     DPTR
1318 E0                MOVX    A,@DPTR
1319 F9                MOV     R1,A
131A 120000      E     LCALL   _strcat
                                           ; SOURCE LINE # 1098
131D 900000      E     MOV     DPTR,#g_mem+07AH
1320 E0                MOVX    A,@DPTR
1321 601E              JZ      ?C0268
                                           ; SOURCE LINE # 1099
1323 900000      E     MOV     DPTR,#?_strcat?BYTE+03H
1326 74FF              MOV     A,#0FFH
1328 F0                MOVX    @DPTR,A
1329 A3                INC     DPTR
132A 7400        R     MOV     A,#HIGH ?SC_1303
132C F0                MOVX    @DPTR,A
132D A3                INC     DPTR
132E 7400        R     MOV     A,#LOW ?SC_1303
1330 F0                MOVX    @DPTR,A
1331 900000      R     MOV     DPTR,#info_string
1334 E0                MOVX    A,@DPTR
1335 FB                MOV     R3,A
1336 A3                INC     DPTR
1337 E0                MOVX    A,@DPTR
1338 FA                MOV     R2,A
1339 A3                INC     DPTR
133A E0                MOVX    A,@DPTR
133B F9                MOV     R1,A
133C 120000      E     LCALL   _strcat
133F 801C              SJMP    ?C0269
1341         ?C0268:
                                           ; SOURCE LINE # 1101
1341 900000      E     MOV     DPTR,#?_strcat?BYTE+03H
1344 74FF              MOV     A,#0FFH
1346 F0                MOVX    @DPTR,A
1347 A3                INC     DPTR
1348 7400        R     MOV     A,#HIGH ?SC_1330
134A F0                MOVX    @DPTR,A
134B A3                INC     DPTR
134C 7400        R     MOV     A,#LOW ?SC_1330
134E F0                MOVX    @DPTR,A
134F 900000      R     MOV     DPTR,#info_string
1352 E0                MOVX    A,@DPTR
1353 FB                MOV     R3,A
C51 COMPILER V9.51   COMMAND_PROCESSING                                                    02/07/2017 16:12:02 PAGE 165 

1354 A3                INC     DPTR
1355 E0                MOVX    A,@DPTR
1356 FA                MOV     R2,A
1357 A3                INC     DPTR
1358 E0                MOVX    A,@DPTR
1359 F9                MOV     R1,A
135A 120000      E     LCALL   _strcat
135D         ?C0269:
                                           ; SOURCE LINE # 1103
135D 900000      E     MOV     DPTR,#?_sprintf?BYTE+03H
1360 74FF              MOV     A,#0FFH
1362 F0                MOVX    @DPTR,A
1363 A3                INC     DPTR
1364 7400        R     MOV     A,#HIGH ?SC_1356
1366 F0                MOVX    @DPTR,A
1367 A3                INC     DPTR
1368 7400        R     MOV     A,#LOW ?SC_1356
136A F0                MOVX    @DPTR,A
136B 900000      E     MOV     DPTR,#c_mem+083H
136E E0                MOVX    A,@DPTR
136F FF                MOV     R7,A
1370 900000      E     MOV     DPTR,#?_sprintf?BYTE+06H
1373 E4                CLR     A
1374 F0                MOVX    @DPTR,A
1375 A3                INC     DPTR
1376 EF                MOV     A,R7
1377 F0                MOVX    @DPTR,A
1378 7B01              MOV     R3,#01H
137A 7A00        R     MOV     R2,#HIGH str
137C 7900        R     MOV     R1,#LOW str
137E 120000      E     LCALL   _sprintf
                                           ; SOURCE LINE # 1104
1381 900000      E     MOV     DPTR,#?_strcat?BYTE+03H
1384 7401              MOV     A,#01H
1386 F0                MOVX    @DPTR,A
1387 A3                INC     DPTR
1388 7400        R     MOV     A,#HIGH str
138A F0                MOVX    @DPTR,A
138B A3                INC     DPTR
138C 7400        R     MOV     A,#LOW str
138E F0                MOVX    @DPTR,A
138F 900000      R     MOV     DPTR,#info_string
1392 E0                MOVX    A,@DPTR
1393 FB                MOV     R3,A
1394 A3                INC     DPTR
1395 E0                MOVX    A,@DPTR
1396 FA                MOV     R2,A
1397 A3                INC     DPTR
1398 E0                MOVX    A,@DPTR
1399 F9                MOV     R1,A
139A 120000      E     LCALL   _strcat
                                           ; SOURCE LINE # 1105
139D 900000      E     MOV     DPTR,#?_strcat?BYTE+03H
13A0 74FF              MOV     A,#0FFH
13A2 F0                MOVX    @DPTR,A
13A3 A3                INC     DPTR
13A4 7400        R     MOV     A,#HIGH ?SC_153
13A6 F0                MOVX    @DPTR,A
13A7 A3                INC     DPTR
13A8 7400        R     MOV     A,#LOW ?SC_153
13AA F0                MOVX    @DPTR,A
13AB 900000      R     MOV     DPTR,#info_string
C51 COMPILER V9.51   COMMAND_PROCESSING                                                    02/07/2017 16:12:02 PAGE 166 

13AE E0                MOVX    A,@DPTR
13AF FB                MOV     R3,A
13B0 A3                INC     DPTR
13B1 E0                MOVX    A,@DPTR
13B2 FA                MOV     R2,A
13B3 A3                INC     DPTR
13B4 E0                MOVX    A,@DPTR
13B5 F9                MOV     R1,A
13B6 120000      E     LCALL   _strcat
                                           ; SOURCE LINE # 1107
13B9 900000      E     MOV     DPTR,#?_sprintf?BYTE+03H
13BC 74FF              MOV     A,#0FFH
13BE F0                MOVX    @DPTR,A
13BF A3                INC     DPTR
13C0 7400        R     MOV     A,#HIGH ?SC_1374
13C2 F0                MOVX    @DPTR,A
13C3 A3                INC     DPTR
13C4 7400        R     MOV     A,#LOW ?SC_1374
13C6 F0                MOVX    @DPTR,A
13C7 900000      E     MOV     DPTR,#timer_value
13CA E0                MOVX    A,@DPTR
13CB F8                MOV     R0,A
13CC A3                INC     DPTR
13CD E0                MOVX    A,@DPTR
13CE F9                MOV     R1,A
13CF A3                INC     DPTR
13D0 E0                MOVX    A,@DPTR
13D1 FA                MOV     R2,A
13D2 A3                INC     DPTR
13D3 E0                MOVX    A,@DPTR
13D4 FB                MOV     R3,A
13D5 900000      E     MOV     DPTR,#timer_value0
13D8 E0                MOVX    A,@DPTR
13D9 FC                MOV     R4,A
13DA A3                INC     DPTR
13DB E0                MOVX    A,@DPTR
13DC FD                MOV     R5,A
13DD A3                INC     DPTR
13DE E0                MOVX    A,@DPTR
13DF FE                MOV     R6,A
13E0 A3                INC     DPTR
13E1 E0                MOVX    A,@DPTR
13E2 C3                CLR     C
13E3 9B                SUBB    A,R3
13E4 FF                MOV     R7,A
13E5 EE                MOV     A,R6
13E6 9A                SUBB    A,R2
13E7 FE                MOV     R6,A
13E8 ED                MOV     A,R5
13E9 99                SUBB    A,R1
13EA FD                MOV     R5,A
13EB EC                MOV     A,R4
13EC 98                SUBB    A,R0
13ED FC                MOV     R4,A
13EE 900000      E     MOV     DPTR,#?_sprintf?BYTE+06H
13F1 120000      E     LCALL   ?C?LSTXDATA
13F4 7B01              MOV     R3,#01H
13F6 7A00        R     MOV     R2,#HIGH str
13F8 7900        R     MOV     R1,#LOW str
13FA 120000      E     LCALL   _sprintf
                                           ; SOURCE LINE # 1108
13FD 900000      E     MOV     DPTR,#?_strcat?BYTE+03H
C51 COMPILER V9.51   COMMAND_PROCESSING                                                    02/07/2017 16:12:02 PAGE 167 

1400 7401              MOV     A,#01H
1402 F0                MOVX    @DPTR,A
1403 A3                INC     DPTR
1404 7400        R     MOV     A,#HIGH str
1406 F0                MOVX    @DPTR,A
1407 A3                INC     DPTR
1408 7400        R     MOV     A,#LOW str
140A F0                MOVX    @DPTR,A
140B 900000      R     MOV     DPTR,#info_string
140E E0                MOVX    A,@DPTR
140F FB                MOV     R3,A
1410 A3                INC     DPTR
1411 E0                MOVX    A,@DPTR
1412 FA                MOV     R2,A
1413 A3                INC     DPTR
1414 E0                MOVX    A,@DPTR
1415 F9                MOV     R1,A
1416 120000      E     LCALL   _strcat
                                           ; SOURCE LINE # 1109
1419 900000      E     MOV     DPTR,#?_strcat?BYTE+03H
141C 74FF              MOV     A,#0FFH
141E F0                MOVX    @DPTR,A
141F A3                INC     DPTR
1420 7400        R     MOV     A,#HIGH ?SC_153
1422 F0                MOVX    @DPTR,A
1423 A3                INC     DPTR
1424 7400        R     MOV     A,#LOW ?SC_153
1426 F0                MOVX    @DPTR,A
1427 900000      R     MOV     DPTR,#info_string
142A E0                MOVX    A,@DPTR
142B FB                MOV     R3,A
142C A3                INC     DPTR
142D E0                MOVX    A,@DPTR
142E FA                MOV     R2,A
142F A3                INC     DPTR
1430 E0                MOVX    A,@DPTR
1431 F9                MOV     R1,A
1432 120000      E     LCALL   _strcat
                                           ; SOURCE LINE # 1110
1435 22                RET     
             ; FUNCTION _infoPrepare (END)

             ; FUNCTION _commWrite_old_id (BEGIN)
                                           ; SOURCE LINE # 1116
0000 900000      R     MOV     DPTR,#packet_data
0003 EB                MOV     A,R3
0004 F0                MOVX    @DPTR,A
0005 A3                INC     DPTR
0006 EA                MOV     A,R2
0007 F0                MOVX    @DPTR,A
0008 A3                INC     DPTR
0009 E9                MOV     A,R1
000A F0                MOVX    @DPTR,A
000B A3                INC     DPTR
000C EC                MOV     A,R4
000D F0                MOVX    @DPTR,A
000E A3                INC     DPTR
000F ED                MOV     A,R5
0010 F0                MOVX    @DPTR,A
                                           ; SOURCE LINE # 1117
                                           ; SOURCE LINE # 1121
0011 7F3A              MOV     R7,#03AH
C51 COMPILER V9.51   COMMAND_PROCESSING                                                    02/07/2017 16:12:02 PAGE 168 

0013 120000      E     LCALL   _UART_RS485_PutChar
                                           ; SOURCE LINE # 1122
0016 7F3A              MOV     R7,#03AH
0018 120000      E     LCALL   _UART_RS485_PutChar
                                           ; SOURCE LINE # 1125
001B 900000      R     MOV     DPTR,#old_id
001E E0                MOVX    A,@DPTR
001F FF                MOV     R7,A
0020 120000      E     LCALL   _UART_RS485_PutChar
                                           ; SOURCE LINE # 1130
0023 900000      R     MOV     DPTR,#packet_lenght
0026 E0                MOVX    A,@DPTR
0027 A3                INC     DPTR
0028 E0                MOVX    A,@DPTR
0029 FF                MOV     R7,A
002A 120000      E     LCALL   _UART_RS485_PutChar
                                           ; SOURCE LINE # 1132
002D E4                CLR     A
002E F500        R     MOV     index,A
0030 F500        R     MOV     index+01H,A
0032         ?C0271:
0032 D3                SETB    C
0033 900000      R     MOV     DPTR,#packet_lenght+01H
0036 E0                MOVX    A,@DPTR
0037 9500        R     SUBB    A,index+01H
0039 900000      R     MOV     DPTR,#packet_lenght
003C E0                MOVX    A,@DPTR
003D 9500        R     SUBB    A,index
003F 4022              JC      ?C0272
                                           ; SOURCE LINE # 1133
0041 900000      R     MOV     DPTR,#packet_data
0044 E0                MOVX    A,@DPTR
0045 FB                MOV     R3,A
0046 A3                INC     DPTR
0047 E0                MOVX    A,@DPTR
0048 FA                MOV     R2,A
0049 A3                INC     DPTR
004A E0                MOVX    A,@DPTR
004B 2500        R     ADD     A,index+01H
004D F9                MOV     R1,A
004E EA                MOV     A,R2
004F 3500        R     ADDC    A,index
0051 FA                MOV     R2,A
0052 120000      E     LCALL   ?C?CLDPTR
0055 FF                MOV     R7,A
0056 120000      E     LCALL   _UART_RS485_PutChar
                                           ; SOURCE LINE # 1134
0059 0500        R     INC     index+01H
005B E500        R     MOV     A,index+01H
005D 7002              JNZ     ?C0434
005F 0500        R     INC     index
0061         ?C0434:
0061 80CF              SJMP    ?C0271
0063         ?C0272:
                                           ; SOURCE LINE # 1136
0063 E4                CLR     A
0064 F500        R     MOV     index,A
0066 F500        R     MOV     index+01H,A
0068         ?C0274:
                                           ; SOURCE LINE # 1138
0068 120000      E     LCALL   UART_RS485_ReadTxStatus
006B EF                MOV     A,R7
C51 COMPILER V9.51   COMMAND_PROCESSING                                                    02/07/2017 16:12:02 PAGE 169 

006C 20E013            JB      ACC.0,?C0275
006F 0500        R     INC     index+01H
0071 E500        R     MOV     A,index+01H
0073 AE00        R     MOV     R6,index
0075 7002              JNZ     ?C0435
0077 0500        R     INC     index
0079         ?C0435:
0079 14                DEC     A
007A D3                SETB    C
007B 94E8              SUBB    A,#0E8H
007D EE                MOV     A,R6
007E 9403              SUBB    A,#03H
0080 40E6              JC      ?C0274
0082         ?C0275:
                                           ; SOURCE LINE # 1140
0082 7F01              MOV     R7,#01H
0084 120000      E     LCALL   _RS485_CTS_Write
                                           ; SOURCE LINE # 1141
0087 E4                CLR     A
0088 FF                MOV     R7,A
0089 120000      E     LCALL   _RS485_CTS_Write
                                           ; SOURCE LINE # 1142
008C 22                RET     
             ; FUNCTION _commWrite_old_id (END)

             ; FUNCTION _commWrite (BEGIN)
                                           ; SOURCE LINE # 1144
0000 900000      R     MOV     DPTR,#packet_data
0003 EB                MOV     A,R3
0004 F0                MOVX    @DPTR,A
0005 A3                INC     DPTR
0006 EA                MOV     A,R2
0007 F0                MOVX    @DPTR,A
0008 A3                INC     DPTR
0009 E9                MOV     A,R1
000A F0                MOVX    @DPTR,A
000B A3                INC     DPTR
000C EC                MOV     A,R4
000D F0                MOVX    @DPTR,A
000E A3                INC     DPTR
000F ED                MOV     A,R5
0010 F0                MOVX    @DPTR,A
                                           ; SOURCE LINE # 1145
                                           ; SOURCE LINE # 1149
0011 7F3A              MOV     R7,#03AH
0013 120000      E     LCALL   _UART_RS485_PutChar
                                           ; SOURCE LINE # 1150
0016 7F3A              MOV     R7,#03AH
0018 120000      E     LCALL   _UART_RS485_PutChar
                                           ; SOURCE LINE # 1153
001B 900000      E     MOV     DPTR,#g_mem+01H
001E E0                MOVX    A,@DPTR
001F FF                MOV     R7,A
0020 120000      E     LCALL   _UART_RS485_PutChar
                                           ; SOURCE LINE # 1156
0023 900000      R     MOV     DPTR,#packet_lenght
0026 E0                MOVX    A,@DPTR
0027 A3                INC     DPTR
0028 E0                MOVX    A,@DPTR
0029 FF                MOV     R7,A
002A 120000      E     LCALL   _UART_RS485_PutChar
                                           ; SOURCE LINE # 1159
C51 COMPILER V9.51   COMMAND_PROCESSING                                                    02/07/2017 16:12:02 PAGE 170 

002D E4                CLR     A
002E F500        R     MOV     index,A
0030 F500        R     MOV     index+01H,A
0032         ?C0277:
0032 D3                SETB    C
0033 900000      R     MOV     DPTR,#packet_lenght+01H
0036 E0                MOVX    A,@DPTR
0037 9500        R     SUBB    A,index+01H
0039 900000      R     MOV     DPTR,#packet_lenght
003C E0                MOVX    A,@DPTR
003D 9500        R     SUBB    A,index
003F 4022              JC      ?C0278
                                           ; SOURCE LINE # 1160
0041 900000      R     MOV     DPTR,#packet_data
0044 E0                MOVX    A,@DPTR
0045 FB                MOV     R3,A
0046 A3                INC     DPTR
0047 E0                MOVX    A,@DPTR
0048 FA                MOV     R2,A
0049 A3                INC     DPTR
004A E0                MOVX    A,@DPTR
004B 2500        R     ADD     A,index+01H
004D F9                MOV     R1,A
004E EA                MOV     A,R2
004F 3500        R     ADDC    A,index
0051 FA                MOV     R2,A
0052 120000      E     LCALL   ?C?CLDPTR
0055 FF                MOV     R7,A
0056 120000      E     LCALL   _UART_RS485_PutChar
0059 0500        R     INC     index+01H
005B E500        R     MOV     A,index+01H
005D 7002              JNZ     ?C0436
005F 0500        R     INC     index
0061         ?C0436:
0061 80CF              SJMP    ?C0277
0063         ?C0278:
                                           ; SOURCE LINE # 1162
0063 E4                CLR     A
0064 F500        R     MOV     index,A
0066 F500        R     MOV     index+01H,A
0068         ?C0280:
                                           ; SOURCE LINE # 1164
0068 120000      E     LCALL   UART_RS485_ReadTxStatus
006B EF                MOV     A,R7
006C 20E013            JB      ACC.0,?C0281
006F 0500        R     INC     index+01H
0071 E500        R     MOV     A,index+01H
0073 AE00        R     MOV     R6,index
0075 7002              JNZ     ?C0437
0077 0500        R     INC     index
0079         ?C0437:
0079 14                DEC     A
007A D3                SETB    C
007B 94E8              SUBB    A,#0E8H
007D EE                MOV     A,R6
007E 9403              SUBB    A,#03H
0080 40E6              JC      ?C0280
0082         ?C0281:
                                           ; SOURCE LINE # 1166
0082 7F01              MOV     R7,#01H
0084 120000      E     LCALL   _RS485_CTS_Write
                                           ; SOURCE LINE # 1167
C51 COMPILER V9.51   COMMAND_PROCESSING                                                    02/07/2017 16:12:02 PAGE 171 

0087 E4                CLR     A
0088 FF                MOV     R7,A
0089 120000      E     LCALL   _RS485_CTS_Write
                                           ; SOURCE LINE # 1168
008C 22                RET     
             ; FUNCTION _commWrite (END)

             ; FUNCTION _sendAcknowledgment (BEGIN)
                                           ; SOURCE LINE # 1174
;---- Variable 'value' assigned to Register 'R7' ----
                                           ; SOURCE LINE # 1181
0000 8F00        R     MOV     packet_data,R7
                                           ; SOURCE LINE # 1184
0002 8F00        R     MOV     packet_data+01H,R7
                                           ; SOURCE LINE # 1186
0004 7B00              MOV     R3,#00H
0006 7A00        R     MOV     R2,#HIGH packet_data
0008 7900        R     MOV     R1,#LOW packet_data
000A 7D02              MOV     R5,#02H
000C 7C00              MOV     R4,#00H
000E 120000      R     LCALL   _commWrite
                                           ; SOURCE LINE # 1187
0011 22                RET     
             ; FUNCTION _sendAcknowledgment (END)

             ; FUNCTION _memStore (BEGIN)
                                           ; SOURCE LINE # 1197
0000 900000      R     MOV     DPTR,#displacement
0003 EE                MOV     A,R6
0004 F0                MOVX    @DPTR,A
0005 A3                INC     DPTR
0006 EF                MOV     A,R7
0007 F0                MOVX    @DPTR,A
                                           ; SOURCE LINE # 1202
0008 900000      R     MOV     DPTR,#ret_val
000B 7401              MOV     A,#01H
000D F0                MOVX    @DPTR,A
                                           ; SOURCE LINE # 1204
000E E4                CLR     A
000F FF                MOV     R7,A
0010 120000      E     LCALL   _PWM_MOTORS_WriteCompare1
                                           ; SOURCE LINE # 1205
0013 E4                CLR     A
0014 FF                MOV     R7,A
0015 120000      E     LCALL   _PWM_MOTORS_WriteCompare2
                                           ; SOURCE LINE # 1208
0018 120000      E     LCALL   EEPROM_UpdateTemperature
                                           ; SOURCE LINE # 1210
001B 7800        E     MOV     R0,#LOW c_mem
001D 7C00        E     MOV     R4,#HIGH c_mem
001F 7D01              MOV     R5,#01H
0021 7B01              MOV     R3,#01H
0023 7A00        E     MOV     R2,#HIGH g_mem
0025 7900        E     MOV     R1,#LOW g_mem
0027 7E00              MOV     R6,#00H
0029 7FA7              MOV     R7,#0A7H
002B 120000      E     LCALL   ?C?COPYAMD
                                           ; SOURCE LINE # 1212
002E 900000      R     MOV     DPTR,#pages
0031 E4                CLR     A
0032 F0                MOVX    @DPTR,A
0033 A3                INC     DPTR
C51 COMPILER V9.51   COMMAND_PROCESSING                                                    02/07/2017 16:12:02 PAGE 172 

0034 740B              MOV     A,#0BH
0036 F0                MOVX    @DPTR,A
                                           ; SOURCE LINE # 1214
0037 E4                CLR     A
0038 900000      R     MOV     DPTR,#i
003B F0                MOVX    @DPTR,A
003C A3                INC     DPTR
003D F0                MOVX    @DPTR,A
003E         ?C0284:
003E 900000      R     MOV     DPTR,#pages
0041 E0                MOVX    A,@DPTR
0042 FE                MOV     R6,A
0043 A3                INC     DPTR
0044 E0                MOVX    A,@DPTR
0045 FF                MOV     R7,A
0046 900000      R     MOV     DPTR,#i
0049 E0                MOVX    A,@DPTR
004A FC                MOV     R4,A
004B A3                INC     DPTR
004C E0                MOVX    A,@DPTR
004D FD                MOV     R5,A
004E C3                CLR     C
004F 9F                SUBB    A,R7
0050 EE                MOV     A,R6
0051 6480              XRL     A,#080H
0053 F8                MOV     R0,A
0054 EC                MOV     A,R4
0055 6480              XRL     A,#080H
0057 98                SUBB    A,R0
0058 503F              JNC     ?C0285
                                           ; SOURCE LINE # 1215
005A ED                MOV     A,R5
005B C4                SWAP    A
005C F8                MOV     R0,A
005D 540F              ANL     A,#0FH
005F C8                XCH     A,R0
0060 68                XRL     A,R0
0061 FF                MOV     R7,A
0062 EC                MOV     A,R4
0063 C4                SWAP    A
0064 54F0              ANL     A,#0F0H
0066 48                ORL     A,R0
0067 FE                MOV     R6,A
0068 7B01              MOV     R3,#01H
006A 7400        E     MOV     A,#LOW g_mem
006C 2F                ADD     A,R7
006D F9                MOV     R1,A
006E 7400        E     MOV     A,#HIGH g_mem
0070 3E                ADDC    A,R6
0071 FA                MOV     R2,A
0072 900000      R     MOV     DPTR,#displacement
0075 E0                MOVX    A,@DPTR
0076 A3                INC     DPTR
0077 E0                MOVX    A,@DPTR
0078 FF                MOV     R7,A
0079 ED                MOV     A,R5
007A 2F                ADD     A,R7
007B FD                MOV     R5,A
007C 120000      E     LCALL   _EEPROM_Write
;---- Variable 'writeStatus' assigned to Register 'R7' ----
                                           ; SOURCE LINE # 1216
007F EF                MOV     A,R7
C51 COMPILER V9.51   COMMAND_PROCESSING                                                    02/07/2017 16:12:02 PAGE 173 

0080 6007              JZ      ?C0286
                                           ; SOURCE LINE # 1217
0082 E4                CLR     A
0083 900000      R     MOV     DPTR,#ret_val
0086 F0                MOVX    @DPTR,A
                                           ; SOURCE LINE # 1218
0087 8010              SJMP    ?C0285
                                           ; SOURCE LINE # 1219
                                           ; SOURCE LINE # 1220
0089         ?C0286:
0089 900000      R     MOV     DPTR,#i+01H
008C E0                MOVX    A,@DPTR
008D 04                INC     A
008E F0                MOVX    @DPTR,A
008F 7006              JNZ     ?C0438
0091 900000      R     MOV     DPTR,#i
0094 E0                MOVX    A,@DPTR
0095 04                INC     A
0096 F0                MOVX    @DPTR,A
0097         ?C0438:
0097 80A5              SJMP    ?C0284
0099         ?C0285:
                                           ; SOURCE LINE # 1222
0099 7800        E     MOV     R0,#LOW g_mem
009B 7C00        E     MOV     R4,#HIGH g_mem
009D 7D01              MOV     R5,#01H
009F 7B01              MOV     R3,#01H
00A1 7A00        E     MOV     R2,#HIGH c_mem
00A3 7900        E     MOV     R1,#LOW c_mem
00A5 7E00              MOV     R6,#00H
00A7 7FA7              MOV     R7,#0A7H
00A9 120000      E     LCALL   ?C?COPYAMD
                                           ; SOURCE LINE # 1224
00AC 900000      R     MOV     DPTR,#ret_val
00AF E0                MOVX    A,@DPTR
00B0 FF                MOV     R7,A
                                           ; SOURCE LINE # 1225
00B1         ?C0288:
00B1 22                RET     
             ; FUNCTION _memStore (END)

             ; FUNCTION memRecall (BEGIN)
                                           ; SOURCE LINE # 1235
                                           ; SOURCE LINE # 1239
;---- Variable 'i' assigned to Register 'R6/R7' ----
0000 E4                CLR     A
0001 FF                MOV     R7,A
0002 FE                MOV     R6,A
0003         ?C0289:
0003 C3                CLR     C
0004 EF                MOV     A,R7
0005 94A7              SUBB    A,#0A7H
0007 EE                MOV     A,R6
0008 9400              SUBB    A,#00H
000A 5023              JNC     ?C0290
                                           ; SOURCE LINE # 1240
000C 900000      R     MOV     DPTR,#EEPROM_ADDR
000F E0                MOVX    A,@DPTR
0010 FC                MOV     R4,A
0011 A3                INC     DPTR
0012 E0                MOVX    A,@DPTR
0013 2F                ADD     A,R7
C51 COMPILER V9.51   COMMAND_PROCESSING                                                    02/07/2017 16:12:02 PAGE 174 

0014 F582              MOV     DPL,A
0016 EC                MOV     A,R4
0017 3E                ADDC    A,R6
0018 F583              MOV     DPH,A
001A E0                MOVX    A,@DPTR
001B FD                MOV     R5,A
001C 7400        E     MOV     A,#LOW g_mem
001E 2F                ADD     A,R7
001F F582              MOV     DPL,A
0021 7400        E     MOV     A,#HIGH g_mem
0023 3E                ADDC    A,R6
0024 F583              MOV     DPH,A
0026 ED                MOV     A,R5
0027 F0                MOVX    @DPTR,A
0028 0F                INC     R7
0029 EF                MOV     A,R7
002A 7001              JNZ     ?C0439
002C 0E                INC     R6
002D         ?C0439:
002D 80D4              SJMP    ?C0289
002F         ?C0290:
                                           ; SOURCE LINE # 1244
002F 900000      E     MOV     DPTR,#g_mem
0032 E0                MOVX    A,@DPTR
0033 7004              JNZ     ?C0292
                                           ; SOURCE LINE # 1245
0035 120000      R     LCALL   memRestore
0038 22                RET     
0039         ?C0292:
                                           ; SOURCE LINE # 1247
0039 7800        E     MOV     R0,#LOW c_mem
003B 7C00        E     MOV     R4,#HIGH c_mem
003D 7D01              MOV     R5,#01H
003F 7B01              MOV     R3,#01H
0041 7A00        E     MOV     R2,#HIGH g_mem
0043 7900        E     MOV     R1,#LOW g_mem
0045 7E00              MOV     R6,#00H
0047 7FA7              MOV     R7,#0A7H
0049 120000      E     LCALL   ?C?COPYAMD
                                           ; SOURCE LINE # 1249
004C         ?C0294:
004C 22                RET     
             ; FUNCTION memRecall (END)

             ; FUNCTION memRestore (BEGIN)
                                           ; SOURCE LINE # 1259
                                           ; SOURCE LINE # 1263
;---- Variable 'i' assigned to Register 'R6/R7' ----
0000 E4                CLR     A
0001 FF                MOV     R7,A
0002 FE                MOV     R6,A
0003         ?C0295:
0003 C3                CLR     C
0004 EF                MOV     A,R7
0005 94A7              SUBB    A,#0A7H
0007 EE                MOV     A,R6
0008 9400              SUBB    A,#00H
000A 502A              JNC     ?C0296
                                           ; SOURCE LINE # 1264
000C EF                MOV     A,R7
000D 2480              ADD     A,#080H
000F FD                MOV     R5,A
C51 COMPILER V9.51   COMMAND_PROCESSING                                                    02/07/2017 16:12:02 PAGE 175 

0010 E4                CLR     A
0011 3E                ADDC    A,R6
0012 FC                MOV     R4,A
0013 900000      R     MOV     DPTR,#EEPROM_ADDR
0016 E0                MOVX    A,@DPTR
0017 FA                MOV     R2,A
0018 A3                INC     DPTR
0019 E0                MOVX    A,@DPTR
001A 2D                ADD     A,R5
001B F582              MOV     DPL,A
001D EA                MOV     A,R2
001E 3C                ADDC    A,R4
001F F583              MOV     DPH,A
0021 E0                MOVX    A,@DPTR
0022 FD                MOV     R5,A
0023 7400        E     MOV     A,#LOW g_mem
0025 2F                ADD     A,R7
0026 F582              MOV     DPL,A
0028 7400        E     MOV     A,#HIGH g_mem
002A 3E                ADDC    A,R6
002B F583              MOV     DPH,A
002D ED                MOV     A,R5
002E F0                MOVX    @DPTR,A
002F 0F                INC     R7
0030 EF                MOV     A,R7
0031 7001              JNZ     ?C0440
0033 0E                INC     R6
0034         ?C0440:
0034 80CD              SJMP    ?C0295
0036         ?C0296:
                                           ; SOURCE LINE # 1268
0036 900000      E     MOV     DPTR,#g_mem
0039 E0                MOVX    A,@DPTR
003A 7004              JNZ     ?C0298
                                           ; SOURCE LINE # 1269
003C 120000      R     LCALL   memInit
003F 22                RET     
0040         ?C0298:
                                           ; SOURCE LINE # 1271
0040 E4                CLR     A
0041 FF                MOV     R7,A
0042 FE                MOV     R6,A
0043 120000      R     LCALL   _memStore
                                           ; SOURCE LINE # 1273
0046         ?C0299:
0046 22                RET     
             ; FUNCTION memRestore (END)

             ; FUNCTION memInit (BEGIN)
                                           ; SOURCE LINE # 1282
                                           ; SOURCE LINE # 1286
0000 900000      E     MOV     DPTR,#g_mem+01H
0003 7401              MOV     A,#01H
0005 F0                MOVX    @DPTR,A
                                           ; SOURCE LINE # 1287
0006 E4                CLR     A
0007 7F8F              MOV     R7,#08FH
0009 7E02              MOV     R6,#02H
000B FD                MOV     R5,A
000C FC                MOV     R4,A
000D A3                INC     DPTR
000E 120000      E     LCALL   ?C?LSTXDATA
C51 COMPILER V9.51   COMMAND_PROCESSING                                                    02/07/2017 16:12:02 PAGE 176 

                                           ; SOURCE LINE # 1288
0011 E4                CLR     A
0012 FF                MOV     R7,A
0013 FE                MOV     R6,A
0014 FD                MOV     R5,A
0015 FC                MOV     R4,A
0016 900000      E     MOV     DPTR,#g_mem+06H
0019 120000      E     LCALL   ?C?LSTXDATA
                                           ; SOURCE LINE # 1289
001C E4                CLR     A
001D 7FCA              MOV     R7,#0CAH
001F 7E01              MOV     R6,#01H
0021 FD                MOV     R5,A
0022 FC                MOV     R4,A
0023 900000      E     MOV     DPTR,#g_mem+0AH
0026 120000      E     LCALL   ?C?LSTXDATA
                                           ; SOURCE LINE # 1290
0029 E4                CLR     A
002A FF                MOV     R7,A
002B FE                MOV     R6,A
002C 7D01              MOV     R5,#01H
002E FC                MOV     R4,A
002F 900000      E     MOV     DPTR,#g_mem+0EH
0032 120000      E     LCALL   ?C?LSTXDATA
                                           ; SOURCE LINE # 1291
0035 E4                CLR     A
0036 FF                MOV     R7,A
0037 FE                MOV     R6,A
0038 FD                MOV     R5,A
0039 FC                MOV     R4,A
003A 900000      E     MOV     DPTR,#g_mem+012H
003D 120000      E     LCALL   ?C?LSTXDATA
                                           ; SOURCE LINE # 1292
0040 E4                CLR     A
0041 FF                MOV     R7,A
0042 FE                MOV     R6,A
0043 FD                MOV     R5,A
0044 FC                MOV     R4,A
0045 900000      E     MOV     DPTR,#g_mem+016H
0048 120000      E     LCALL   ?C?LSTXDATA
                                           ; SOURCE LINE # 1294
004B E4                CLR     A
004C FF                MOV     R7,A
004D FE                MOV     R6,A
004E FD                MOV     R5,A
004F FC                MOV     R4,A
0050 900000      E     MOV     DPTR,#g_mem+01AH
0053 120000      E     LCALL   ?C?LSTXDATA
                                           ; SOURCE LINE # 1295
0056 E4                CLR     A
0057 FF                MOV     R7,A
0058 FE                MOV     R6,A
0059 FD                MOV     R5,A
005A FC                MOV     R4,A
005B 900000      E     MOV     DPTR,#g_mem+01EH
005E 120000      E     LCALL   ?C?LSTXDATA
                                           ; SOURCE LINE # 1296
0061 E4                CLR     A
0062 FF                MOV     R7,A
0063 FE                MOV     R6,A
0064 FD                MOV     R5,A
0065 FC                MOV     R4,A
C51 COMPILER V9.51   COMMAND_PROCESSING                                                    02/07/2017 16:12:02 PAGE 177 

0066 900000      E     MOV     DPTR,#g_mem+022H
0069 120000      E     LCALL   ?C?LSTXDATA
                                           ; SOURCE LINE # 1297
006C E4                CLR     A
006D FF                MOV     R7,A
006E FE                MOV     R6,A
006F FD                MOV     R5,A
0070 FC                MOV     R4,A
0071 900000      E     MOV     DPTR,#g_mem+026H
0074 120000      E     LCALL   ?C?LSTXDATA
                                           ; SOURCE LINE # 1298
0077 E4                CLR     A
0078 FF                MOV     R7,A
0079 FE                MOV     R6,A
007A FD                MOV     R5,A
007B FC                MOV     R4,A
007C 900000      E     MOV     DPTR,#g_mem+02AH
007F 120000      E     LCALL   ?C?LSTXDATA
                                           ; SOURCE LINE # 1299
0082 E4                CLR     A
0083 FF                MOV     R7,A
0084 FE                MOV     R6,A
0085 FD                MOV     R5,A
0086 FC                MOV     R4,A
0087 900000      E     MOV     DPTR,#g_mem+02EH
008A 120000      E     LCALL   ?C?LSTXDATA
                                           ; SOURCE LINE # 1301
008D E4                CLR     A
008E 900000      E     MOV     DPTR,#g_mem+034H
0091 F0                MOVX    @DPTR,A
                                           ; SOURCE LINE # 1302
0092 A3                INC     DPTR
0093 F0                MOVX    @DPTR,A
                                           ; SOURCE LINE # 1303
0094 A3                INC     DPTR
0095 F0                MOVX    @DPTR,A
                                           ; SOURCE LINE # 1304
0096 900000      E     MOV     DPTR,#g_mem+06DH
0099 F0                MOVX    @DPTR,A
                                           ; SOURCE LINE # 1306
009A 900000      E     MOV     DPTR,#g_mem+05BH
009D 04                INC     A
009E F0                MOVX    @DPTR,A
                                           ; SOURCE LINE # 1308
009F E4                CLR     A
00A0 900000      E     MOV     DPTR,#g_mem+09EH
00A3 F0                MOVX    @DPTR,A
                                           ; SOURCE LINE # 1310
00A4 F500        R     MOV     i,A
00A6         ?C0301:
00A6 E500        R     MOV     A,i
00A8 C3                CLR     C
00A9 9404              SUBB    A,#04H
00AB 502B              JNC     ?C0302
                                           ; SOURCE LINE # 1311
00AD E4                CLR     A
00AE FF                MOV     R7,A
00AF FE                MOV     R6,A
00B0 7D80              MOV     R5,#080H
00B2 7C3F              MOV     R4,#03FH
00B4 E500        R     MOV     A,i
00B6 25E0              ADD     A,ACC
C51 COMPILER V9.51   COMMAND_PROCESSING                                                    02/07/2017 16:12:02 PAGE 178 

00B8 25E0              ADD     A,ACC
00BA 2400        E     ADD     A,#LOW g_mem+04BH
00BC F582              MOV     DPL,A
00BE E4                CLR     A
00BF 3400        E     ADDC    A,#HIGH g_mem+04BH
00C1 F583              MOV     DPH,A
00C3 120000      E     LCALL   ?C?LSTXDATA
                                           ; SOURCE LINE # 1312
00C6 7400        E     MOV     A,#LOW g_mem+037H
00C8 2500        R     ADD     A,i
00CA F582              MOV     DPL,A
00CC E4                CLR     A
00CD 3400        E     ADDC    A,#HIGH g_mem+037H
00CF F583              MOV     DPH,A
00D1 7403              MOV     A,#03H
00D3 F0                MOVX    @DPTR,A
                                           ; SOURCE LINE # 1313
00D4 0500        R     INC     i
00D6 80CE              SJMP    ?C0301
00D8         ?C0302:
                                           ; SOURCE LINE # 1315
00D8 E4                CLR     A
00D9 F500        R     MOV     i,A
00DB         ?C0304:
00DB E500        R     MOV     A,i
00DD C3                CLR     C
00DE 9402              SUBB    A,#02H
00E0 5045              JNC     ?C0305
                                           ; SOURCE LINE # 1316
00E2 E4                CLR     A
00E3 FF                MOV     R7,A
00E4 FE                MOV     R6,A
00E5 FD                MOV     R5,A
00E6 FC                MOV     R4,A
00E7 E500        R     MOV     A,i
00E9 25E0              ADD     A,ACC
00EB 25E0              ADD     A,ACC
00ED 2400        E     ADD     A,#LOW g_mem+05CH
00EF F582              MOV     DPL,A
00F1 E4                CLR     A
00F2 3400        E     ADDC    A,#HIGH g_mem+05CH
00F4 F583              MOV     DPH,A
00F6 120000      E     LCALL   ?C?LSTXDATA
                                           ; SOURCE LINE # 1317
00F9 E4                CLR     A
00FA 7F38              MOV     R7,#038H
00FC 7E4A              MOV     R6,#04AH
00FE FD                MOV     R5,A
00FF FC                MOV     R4,A
0100 7400        E     MOV     A,#LOW g_mem+037H
0102 2500        R     ADD     A,i
0104 F582              MOV     DPL,A
0106 E4                CLR     A
0107 3400        E     ADDC    A,#HIGH g_mem+037H
0109 F583              MOV     DPH,A
010B E0                MOVX    A,@DPTR
010C F9                MOV     R1,A
010D F8                MOV     R0,A
010E 120000      E     LCALL   ?C?LSHL
0111 E500        R     MOV     A,i
0113 25E0              ADD     A,ACC
0115 25E0              ADD     A,ACC
C51 COMPILER V9.51   COMMAND_PROCESSING                                                    02/07/2017 16:12:02 PAGE 179 

0117 2400        E     ADD     A,#LOW g_mem+064H
0119 F582              MOV     DPL,A
011B E4                CLR     A
011C 3400        E     ADDC    A,#HIGH g_mem+064H
011E F583              MOV     DPH,A
0120 120000      E     LCALL   ?C?LSTXDATA
                                           ; SOURCE LINE # 1318
0123 0500        R     INC     i
0125 80B4              SJMP    ?C0304
0127         ?C0305:
                                           ; SOURCE LINE # 1320
0127 E4                CLR     A
0128 FF                MOV     R7,A
0129 FE                MOV     R6,A
012A FD                MOV     R5,A
012B FC                MOV     R4,A
012C 900000      E     MOV     DPTR,#g_mem+072H
012F 120000      E     LCALL   ?C?LSTXDATA
                                           ; SOURCE LINE # 1321
0132 E4                CLR     A
0133 FF                MOV     R7,A
0134 FE                MOV     R6,A
0135 FD                MOV     R5,A
0136 FC                MOV     R4,A
0137 900000      E     MOV     DPTR,#g_mem+06EH
013A 120000      E     LCALL   ?C?LSTXDATA
                                           ; SOURCE LINE # 1323
013D E4                CLR     A
013E FF                MOV     R7,A
013F FE                MOV     R6,A
0140 FD                MOV     R5,A
0141 FC                MOV     R4,A
0142 900000      E     MOV     DPTR,#g_mem+037H
0145 E0                MOVX    A,@DPTR
0146 F9                MOV     R1,A
0147 F8                MOV     R0,A
0148 120000      E     LCALL   ?C?LSHL
014B 900000      E     MOV     DPTR,#g_mem+03BH
014E 120000      E     LCALL   ?C?LSTXDATA
                                           ; SOURCE LINE # 1324
0151 E4                CLR     A
0152 FF                MOV     R7,A
0153 FE                MOV     R6,A
0154 FD                MOV     R5,A
0155 FC                MOV     R4,A
0156 900000      E     MOV     DPTR,#g_mem+038H
0159 E0                MOVX    A,@DPTR
015A F9                MOV     R1,A
015B F8                MOV     R0,A
015C 120000      E     LCALL   ?C?LSHL
015F 900000      E     MOV     DPTR,#g_mem+03FH
0162 120000      E     LCALL   ?C?LSTXDATA
                                           ; SOURCE LINE # 1325
0165 E4                CLR     A
0166 FF                MOV     R7,A
0167 FE                MOV     R6,A
0168 FD                MOV     R5,A
0169 FC                MOV     R4,A
016A 900000      E     MOV     DPTR,#g_mem+039H
016D E0                MOVX    A,@DPTR
016E F9                MOV     R1,A
016F F8                MOV     R0,A
C51 COMPILER V9.51   COMMAND_PROCESSING                                                    02/07/2017 16:12:02 PAGE 180 

0170 120000      E     LCALL   ?C?LSHL
0173 900000      E     MOV     DPTR,#g_mem+043H
0176 120000      E     LCALL   ?C?LSTXDATA
                                           ; SOURCE LINE # 1327
0179 E4                CLR     A
017A FF                MOV     R7,A
017B FE                MOV     R6,A
017C FD                MOV     R5,A
017D FC                MOV     R4,A
017E 900000      E     MOV     DPTR,#g_mem+03AH
0181 E0                MOVX    A,@DPTR
0182 F9                MOV     R1,A
0183 F8                MOV     R0,A
0184 120000      E     LCALL   ?C?LSHL
0187 900000      E     MOV     DPTR,#g_mem+047H
018A 120000      E     LCALL   ?C?LSTXDATA
                                           ; SOURCE LINE # 1330
018D 900000      E     MOV     DPTR,#g_mem+032H
0190 7403              MOV     A,#03H
0192 F0                MOVX    @DPTR,A
0193 A3                INC     DPTR
0194 74E8              MOV     A,#0E8H
0196 F0                MOVX    @DPTR,A
                                           ; SOURCE LINE # 1333
0197 E4                CLR     A
0198 900000      E     MOV     DPTR,#g_mem+07AH
019B F0                MOVX    @DPTR,A
                                           ; SOURCE LINE # 1335
019C FF                MOV     R7,A
019D FE                MOV     R6,A
019E FD                MOV     R5,A
019F FC                MOV     R4,A
01A0 A3                INC     DPTR
01A1 120000      E     LCALL   ?C?LSTXDATA
                                           ; SOURCE LINE # 1336
01A4 E4                CLR     A
01A5 FF                MOV     R7,A
01A6 FE                MOV     R6,A
01A7 FD                MOV     R5,A
01A8 FC                MOV     R4,A
01A9 900000      E     MOV     DPTR,#g_mem+07FH
01AC 120000      E     LCALL   ?C?LSTXDATA
                                           ; SOURCE LINE # 1337
01AF 900000      E     MOV     DPTR,#g_mem+076H
01B2 E4                CLR     A
01B3 F0                MOVX    @DPTR,A
01B4 A3                INC     DPTR
01B5 7464              MOV     A,#064H
01B7 F0                MOVX    @DPTR,A
                                           ; SOURCE LINE # 1338
01B8 A3                INC     DPTR
01B9 E4                CLR     A
01BA F0                MOVX    @DPTR,A
01BB A3                INC     DPTR
01BC 7464              MOV     A,#064H
01BE F0                MOVX    @DPTR,A
                                           ; SOURCE LINE # 1339
01BF 900000      E     MOV     DPTR,#g_mem+083H
01C2 F0                MOVX    @DPTR,A
                                           ; SOURCE LINE # 1341
01C3 900000      E     MOV     DPTR,#g_mem+09FH
01C6 E4                CLR     A
C51 COMPILER V9.51   COMMAND_PROCESSING                                                    02/07/2017 16:12:02 PAGE 181 

01C7 F0                MOVX    @DPTR,A
01C8 A3                INC     DPTR
01C9 7496              MOV     A,#096H
01CB F0                MOVX    @DPTR,A
                                           ; SOURCE LINE # 1342
01CC A3                INC     DPTR
01CD E4                CLR     A
01CE F0                MOVX    @DPTR,A
01CF A3                INC     DPTR
01D0 7464              MOV     A,#064H
01D2 F0                MOVX    @DPTR,A
                                           ; SOURCE LINE # 1343
01D3 A3                INC     DPTR
01D4 7404              MOV     A,#04H
01D6 F0                MOVX    @DPTR,A
01D7 A3                INC     DPTR
01D8 E4                CLR     A
01D9 F0                MOVX    @DPTR,A
                                           ; SOURCE LINE # 1344
01DA A3                INC     DPTR
01DB 7404              MOV     A,#04H
01DD F0                MOVX    @DPTR,A
01DE A3                INC     DPTR
01DF E4                CLR     A
01E0 F0                MOVX    @DPTR,A
                                           ; SOURCE LINE # 1346
01E1 900000      E     MOV     DPTR,#g_mem+084H
01E4 04                INC     A
01E5 F0                MOVX    @DPTR,A
                                           ; SOURCE LINE # 1347
01E6 A3                INC     DPTR
01E7 7416              MOV     A,#016H
01E9 F0                MOVX    @DPTR,A
                                           ; SOURCE LINE # 1350
01EA 900000      E     MOV     DPTR,#g_mem
01ED 7401              MOV     A,#01H
01EF F0                MOVX    @DPTR,A
                                           ; SOURCE LINE # 1353
01F0 E4                CLR     A
01F1 FF                MOV     R7,A
01F2 FE                MOV     R6,A
01F3 120000      R     LCALL   _memStore
01F6 EF                MOV     A,R7
01F7 600E              JZ      ?C0307
01F9 7F08              MOV     R7,#08H
01FB 7E00              MOV     R6,#00H
01FD 120000      R     LCALL   _memStore
0200 EF                MOV     A,R7
0201 6004              JZ      ?C0307
0203 7F01              MOV     R7,#01H
0205 8002              SJMP    ?C0308
0207         ?C0307:
0207 7F00              MOV     R7,#00H
0209         ?C0308:
                                           ; SOURCE LINE # 1354
0209         ?C0309:
0209 22                RET     
             ; FUNCTION memInit (END)

             ; FUNCTION cmd_get_measurements (BEGIN)
                                           ; SOURCE LINE # 1363
                                           ; SOURCE LINE # 1377
C51 COMPILER V9.51   COMMAND_PROCESSING                                                    02/07/2017 16:12:02 PAGE 182 

0000 900000      R     MOV     DPTR,#packet_data
0003 7484              MOV     A,#084H
0005 F0                MOVX    @DPTR,A
                                           ; SOURCE LINE # 1379
0006 750004      R     MOV     index,#04H
0009         ?C0310:
0009 AF00        R     MOV     R7,index
000B 1500        R     DEC     index
000D EF                MOV     A,R7
000E 603F              JZ      ?C0311
                                           ; SOURCE LINE # 1380
0010 E500        R     MOV     A,index
0012 25E0              ADD     A,ACC
0014 25E0              ADD     A,ACC
0016 2400        E     ADD     A,#LOW g_measOld+010H
0018 F582              MOV     DPL,A
001A E4                CLR     A
001B 3400        E     ADDC    A,#HIGH g_measOld+010H
001D F583              MOV     DPH,A
001F E0                MOVX    A,@DPTR
0020 FC                MOV     R4,A
0021 A3                INC     DPTR
0022 E0                MOVX    A,@DPTR
0023 FD                MOV     R5,A
0024 A3                INC     DPTR
0025 E0                MOVX    A,@DPTR
0026 FE                MOV     R6,A
0027 A3                INC     DPTR
0028 E0                MOVX    A,@DPTR
0029 FF                MOV     R7,A
002A 7400        E     MOV     A,#LOW g_mem+037H
002C 2500        R     ADD     A,index
002E F582              MOV     DPL,A
0030 E4                CLR     A
0031 3400        E     ADDC    A,#HIGH g_mem+037H
0033 F583              MOV     DPH,A
0035 E0                MOVX    A,@DPTR
0036 F9                MOV     R1,A
0037 F8                MOV     R0,A
0038 120000      E     LCALL   ?C?SLSHR
003B E500        R     MOV     A,index
003D 25E0              ADD     A,ACC
003F 2400        R     ADD     A,#LOW packet_data+01H
0041 F582              MOV     DPL,A
0043 E4                CLR     A
0044 3400        R     ADDC    A,#HIGH packet_data+01H
0046 F583              MOV     DPH,A
0048 EE                MOV     A,R6
0049 F0                MOVX    @DPTR,A
004A A3                INC     DPTR
004B EF                MOV     A,R7
004C F0                MOVX    @DPTR,A
004D 80BA              SJMP    ?C0310
004F         ?C0311:
                                           ; SOURCE LINE # 1385
004F 7B01              MOV     R3,#01H
0051 7A00        R     MOV     R2,#HIGH packet_data
0053 7900        R     MOV     R1,#LOW packet_data
0055 7D09              MOV     R5,#09H
0057 120000      E     LCALL   _LCRChecksum
005A 900000      R     MOV     DPTR,#packet_data+09H
005D EF                MOV     A,R7
C51 COMPILER V9.51   COMMAND_PROCESSING                                                    02/07/2017 16:12:02 PAGE 183 

005E F0                MOVX    @DPTR,A
                                           ; SOURCE LINE # 1386
005F 7B01              MOV     R3,#01H
0061 7A00        R     MOV     R2,#HIGH packet_data
0063 7900        R     MOV     R1,#LOW packet_data
0065 7D0A              MOV     R5,#0AH
0067 7C00              MOV     R4,#00H
0069 120000      R     LCALL   _commWrite
                                           ; SOURCE LINE # 1393
006C 22                RET     
             ; FUNCTION cmd_get_measurements (END)

             ; FUNCTION cmd_get_inputs (BEGIN)
                                           ; SOURCE LINE # 1395
                                           ; SOURCE LINE # 1403
0000 900000      R     MOV     DPTR,#packet_data
0003 7483              MOV     A,#083H
0005 F0                MOVX    @DPTR,A
                                           ; SOURCE LINE # 1405
0006 900000      E     MOV     DPTR,#g_refOld
0009 E0                MOVX    A,@DPTR
000A FC                MOV     R4,A
000B A3                INC     DPTR
000C E0                MOVX    A,@DPTR
000D FD                MOV     R5,A
000E A3                INC     DPTR
000F E0                MOVX    A,@DPTR
0010 FE                MOV     R6,A
0011 A3                INC     DPTR
0012 E0                MOVX    A,@DPTR
0013 FF                MOV     R7,A
0014 900000      E     MOV     DPTR,#g_mem+037H
0017 E0                MOVX    A,@DPTR
0018 F9                MOV     R1,A
0019 F8                MOV     R0,A
001A 120000      E     LCALL   ?C?SLSHR
001D 900000      R     MOV     DPTR,#packet_data+01H
0020 EE                MOV     A,R6
0021 F0                MOVX    @DPTR,A
0022 A3                INC     DPTR
0023 EF                MOV     A,R7
0024 F0                MOVX    @DPTR,A
                                           ; SOURCE LINE # 1406
0025 900000      E     MOV     DPTR,#g_refOld+04H
0028 E0                MOVX    A,@DPTR
0029 FC                MOV     R4,A
002A A3                INC     DPTR
002B E0                MOVX    A,@DPTR
002C FD                MOV     R5,A
002D A3                INC     DPTR
002E E0                MOVX    A,@DPTR
002F FE                MOV     R6,A
0030 A3                INC     DPTR
0031 E0                MOVX    A,@DPTR
0032 FF                MOV     R7,A
0033 900000      E     MOV     DPTR,#g_mem+038H
0036 E0                MOVX    A,@DPTR
0037 F9                MOV     R1,A
0038 F8                MOV     R0,A
0039 120000      E     LCALL   ?C?SLSHR
003C 900000      R     MOV     DPTR,#packet_data+03H
003F EE                MOV     A,R6
C51 COMPILER V9.51   COMMAND_PROCESSING                                                    02/07/2017 16:12:02 PAGE 184 

0040 F0                MOVX    @DPTR,A
0041 A3                INC     DPTR
0042 EF                MOV     A,R7
0043 F0                MOVX    @DPTR,A
                                           ; SOURCE LINE # 1410
0044 7B01              MOV     R3,#01H
0046 7A00        R     MOV     R2,#HIGH packet_data
0048 7900        R     MOV     R1,#LOW packet_data
004A 7D05              MOV     R5,#05H
004C 120000      E     LCALL   _LCRChecksum
004F 900000      R     MOV     DPTR,#packet_data+05H
0052 EF                MOV     A,R7
0053 F0                MOVX    @DPTR,A
                                           ; SOURCE LINE # 1412
0054 7B01              MOV     R3,#01H
0056 7A00        R     MOV     R2,#HIGH packet_data
0058 7900        R     MOV     R1,#LOW packet_data
005A 7D06              MOV     R5,#06H
005C 7C00              MOV     R4,#00H
005E 120000      R     LCALL   _commWrite
                                           ; SOURCE LINE # 1414
0061 22                RET     
             ; FUNCTION cmd_get_inputs (END)

             ; FUNCTION cmd_get_currents (BEGIN)
                                           ; SOURCE LINE # 1416
                                           ; SOURCE LINE # 1424
0000 900000      R     MOV     DPTR,#packet_data
0003 7485              MOV     A,#085H
0005 F0                MOVX    @DPTR,A
                                           ; SOURCE LINE # 1426
0006 900000      E     MOV     DPTR,#g_measOld+08H
0009 E0                MOVX    A,@DPTR
000A A3                INC     DPTR
000B E0                MOVX    A,@DPTR
000C A3                INC     DPTR
000D E0                MOVX    A,@DPTR
000E FF                MOV     R7,A
000F A3                INC     DPTR
0010 E0                MOVX    A,@DPTR
0011 900000      R     MOV     DPTR,#packet_data+01H
0014 CF                XCH     A,R7
0015 F0                MOVX    @DPTR,A
0016 A3                INC     DPTR
0017 EF                MOV     A,R7
0018 F0                MOVX    @DPTR,A
                                           ; SOURCE LINE # 1427
0019 900000      E     MOV     DPTR,#g_measOld+0CH
001C E0                MOVX    A,@DPTR
001D A3                INC     DPTR
001E E0                MOVX    A,@DPTR
001F A3                INC     DPTR
0020 E0                MOVX    A,@DPTR
0021 FF                MOV     R7,A
0022 A3                INC     DPTR
0023 E0                MOVX    A,@DPTR
0024 900000      R     MOV     DPTR,#packet_data+03H
0027 CF                XCH     A,R7
0028 F0                MOVX    @DPTR,A
0029 A3                INC     DPTR
002A EF                MOV     A,R7
002B F0                MOVX    @DPTR,A
C51 COMPILER V9.51   COMMAND_PROCESSING                                                    02/07/2017 16:12:02 PAGE 185 

                                           ; SOURCE LINE # 1431
002C 7B01              MOV     R3,#01H
002E 7A00        R     MOV     R2,#HIGH packet_data
0030 7900        R     MOV     R1,#LOW packet_data
0032 7D05              MOV     R5,#05H
0034 120000      E     LCALL   _LCRChecksum
0037 900000      R     MOV     DPTR,#packet_data+05H
003A EF                MOV     A,R7
003B F0                MOVX    @DPTR,A
                                           ; SOURCE LINE # 1433
003C 7B01              MOV     R3,#01H
003E 7A00        R     MOV     R2,#HIGH packet_data
0040 7900        R     MOV     R1,#LOW packet_data
0042 7D06              MOV     R5,#06H
0044 7C00              MOV     R4,#00H
0046 120000      R     LCALL   _commWrite
                                           ; SOURCE LINE # 1434
0049 22                RET     
             ; FUNCTION cmd_get_currents (END)

             ; FUNCTION cmd_get_curr_and_meas (BEGIN)
                                           ; SOURCE LINE # 1436
                                           ; SOURCE LINE # 1450
0000 900000      R     MOV     DPTR,#packet_data
0003 7486              MOV     A,#086H
0005 F0                MOVX    @DPTR,A
                                           ; SOURCE LINE # 1453
0006 900000      E     MOV     DPTR,#g_measOld+08H
0009 E0                MOVX    A,@DPTR
000A A3                INC     DPTR
000B E0                MOVX    A,@DPTR
000C A3                INC     DPTR
000D E0                MOVX    A,@DPTR
000E FF                MOV     R7,A
000F A3                INC     DPTR
0010 E0                MOVX    A,@DPTR
0011 900000      R     MOV     DPTR,#packet_data+01H
0014 CF                XCH     A,R7
0015 F0                MOVX    @DPTR,A
0016 A3                INC     DPTR
0017 EF                MOV     A,R7
0018 F0                MOVX    @DPTR,A
                                           ; SOURCE LINE # 1454
0019 900000      E     MOV     DPTR,#g_measOld+0CH
001C E0                MOVX    A,@DPTR
001D A3                INC     DPTR
001E E0                MOVX    A,@DPTR
001F A3                INC     DPTR
0020 E0                MOVX    A,@DPTR
0021 FF                MOV     R7,A
0022 A3                INC     DPTR
0023 E0                MOVX    A,@DPTR
0024 900000      R     MOV     DPTR,#packet_data+03H
0027 CF                XCH     A,R7
0028 F0                MOVX    @DPTR,A
0029 A3                INC     DPTR
002A EF                MOV     A,R7
002B F0                MOVX    @DPTR,A
                                           ; SOURCE LINE # 1457
002C 750004      R     MOV     index,#04H
002F         ?C0315:
002F AF00        R     MOV     R7,index
C51 COMPILER V9.51   COMMAND_PROCESSING                                                    02/07/2017 16:12:02 PAGE 186 

0031 1500        R     DEC     index
0033 EF                MOV     A,R7
0034 6041              JZ      ?C0316
                                           ; SOURCE LINE # 1458
0036 E500        R     MOV     A,index
0038 25E0              ADD     A,ACC
003A 25E0              ADD     A,ACC
003C 2400        E     ADD     A,#LOW g_measOld+010H
003E F582              MOV     DPL,A
0040 E4                CLR     A
0041 3400        E     ADDC    A,#HIGH g_measOld+010H
0043 F583              MOV     DPH,A
0045 E0                MOVX    A,@DPTR
0046 FC                MOV     R4,A
0047 A3                INC     DPTR
0048 E0                MOVX    A,@DPTR
0049 FD                MOV     R5,A
004A A3                INC     DPTR
004B E0                MOVX    A,@DPTR
004C FE                MOV     R6,A
004D A3                INC     DPTR
004E E0                MOVX    A,@DPTR
004F FF                MOV     R7,A
0050 7400        E     MOV     A,#LOW g_mem+037H
0052 2500        R     ADD     A,index
0054 F582              MOV     DPL,A
0056 E4                CLR     A
0057 3400        E     ADDC    A,#HIGH g_mem+037H
0059 F583              MOV     DPH,A
005B E0                MOVX    A,@DPTR
005C F9                MOV     R1,A
005D F8                MOV     R0,A
005E 120000      E     LCALL   ?C?SLSHR
0061 E500        R     MOV     A,index
0063 25E0              ADD     A,ACC
0065 25E0              ADD     A,ACC
0067 2400        R     ADD     A,#LOW packet_data+05H
0069 F582              MOV     DPL,A
006B E4                CLR     A
006C 3400        R     ADDC    A,#HIGH packet_data+05H
006E F583              MOV     DPH,A
0070 EE                MOV     A,R6
0071 F0                MOVX    @DPTR,A
0072 A3                INC     DPTR
0073 EF                MOV     A,R7
0074 F0                MOVX    @DPTR,A
0075 80B8              SJMP    ?C0315
0077         ?C0316:
                                           ; SOURCE LINE # 1463
0077 7B01              MOV     R3,#01H
0079 7A00        R     MOV     R2,#HIGH packet_data
007B 7900        R     MOV     R1,#LOW packet_data
007D 7D0D              MOV     R5,#0DH
007F 120000      E     LCALL   _LCRChecksum
0082 900000      R     MOV     DPTR,#packet_data+0DH
0085 EF                MOV     A,R7
0086 F0                MOVX    @DPTR,A
                                           ; SOURCE LINE # 1464
0087 7B01              MOV     R3,#01H
0089 7A00        R     MOV     R2,#HIGH packet_data
008B 7900        R     MOV     R1,#LOW packet_data
008D 7D0E              MOV     R5,#0EH
C51 COMPILER V9.51   COMMAND_PROCESSING                                                    02/07/2017 16:12:02 PAGE 187 

008F 7C00              MOV     R4,#00H
0091 120000      R     LCALL   _commWrite
                                           ; SOURCE LINE # 1470
0094 22                RET     
             ; FUNCTION cmd_get_curr_and_meas (END)

             ; FUNCTION cmd_set_inputs (BEGIN)
                                           ; SOURCE LINE # 1472
                                           ; SOURCE LINE # 1475
0000 900000      E     MOV     DPTR,#g_rx+01H
0003 E0                MOVX    A,@DPTR
0004 FE                MOV     R6,A
0005 A3                INC     DPTR
0006 E0                MOVX    A,@DPTR
0007 FF                MOV     R7,A
0008 EE                MOV     A,R6
0009 33                RLC     A
000A 95E0              SUBB    A,ACC
000C FD                MOV     R5,A
000D FC                MOV     R4,A
000E 900000      E     MOV     DPTR,#g_refNew
0011 120000      E     LCALL   ?C?LSTXDATA
                                           ; SOURCE LINE # 1476
0014 900000      E     MOV     DPTR,#g_refNew
0017 E0                MOVX    A,@DPTR
0018 FC                MOV     R4,A
0019 A3                INC     DPTR
001A E0                MOVX    A,@DPTR
001B FD                MOV     R5,A
001C A3                INC     DPTR
001D E0                MOVX    A,@DPTR
001E FE                MOV     R6,A
001F A3                INC     DPTR
0020 E0                MOVX    A,@DPTR
0021 FF                MOV     R7,A
0022 900000      E     MOV     DPTR,#g_mem+037H
0025 E0                MOVX    A,@DPTR
0026 F9                MOV     R1,A
0027 F8                MOV     R0,A
0028 120000      E     LCALL   ?C?LSHL
002B 900000      E     MOV     DPTR,#g_refNew
002E 120000      E     LCALL   ?C?LSTXDATA
                                           ; SOURCE LINE # 1478
0031 900000      E     MOV     DPTR,#g_rx+03H
0034 E0                MOVX    A,@DPTR
0035 FE                MOV     R6,A
0036 A3                INC     DPTR
0037 E0                MOVX    A,@DPTR
0038 FF                MOV     R7,A
0039 EE                MOV     A,R6
003A 33                RLC     A
003B 95E0              SUBB    A,ACC
003D FD                MOV     R5,A
003E FC                MOV     R4,A
003F 900000      E     MOV     DPTR,#g_refNew+04H
0042 120000      E     LCALL   ?C?LSTXDATA
                                           ; SOURCE LINE # 1479
0045 900000      E     MOV     DPTR,#g_refNew+04H
0048 E0                MOVX    A,@DPTR
0049 FC                MOV     R4,A
004A A3                INC     DPTR
004B E0                MOVX    A,@DPTR
C51 COMPILER V9.51   COMMAND_PROCESSING                                                    02/07/2017 16:12:02 PAGE 188 

004C FD                MOV     R5,A
004D A3                INC     DPTR
004E E0                MOVX    A,@DPTR
004F FE                MOV     R6,A
0050 A3                INC     DPTR
0051 E0                MOVX    A,@DPTR
0052 FF                MOV     R7,A
0053 900000      E     MOV     DPTR,#g_mem+038H
0056 E0                MOVX    A,@DPTR
0057 F9                MOV     R1,A
0058 F8                MOV     R0,A
0059 120000      E     LCALL   ?C?LSHL
005C 900000      E     MOV     DPTR,#g_refNew+04H
005F 120000      E     LCALL   ?C?LSTXDATA
                                           ; SOURCE LINE # 1482
0062 900000      E     MOV     DPTR,#c_mem+05BH
0065 E0                MOVX    A,@DPTR
0066 7003              JNZ     $ + 5H
0068 020000      R     LJMP    ?C0323
                                           ; SOURCE LINE # 1484
006B A3                INC     DPTR
006C E0                MOVX    A,@DPTR
006D FC                MOV     R4,A
006E A3                INC     DPTR
006F E0                MOVX    A,@DPTR
0070 FD                MOV     R5,A
0071 A3                INC     DPTR
0072 E0                MOVX    A,@DPTR
0073 FE                MOV     R6,A
0074 A3                INC     DPTR
0075 E0                MOVX    A,@DPTR
0076 FF                MOV     R7,A
0077 900000      E     MOV     DPTR,#g_refNew
007A E0                MOVX    A,@DPTR
007B F8                MOV     R0,A
007C A3                INC     DPTR
007D E0                MOVX    A,@DPTR
007E F9                MOV     R1,A
007F A3                INC     DPTR
0080 E0                MOVX    A,@DPTR
0081 FA                MOV     R2,A
0082 A3                INC     DPTR
0083 E0                MOVX    A,@DPTR
0084 FB                MOV     R3,A
0085 C3                CLR     C
0086 120000      E     LCALL   ?C?SLCMP
0089 5014              JNC     ?C0319
                                           ; SOURCE LINE # 1485
008B 900000      E     MOV     DPTR,#c_mem+05CH
008E E0                MOVX    A,@DPTR
008F FC                MOV     R4,A
0090 A3                INC     DPTR
0091 E0                MOVX    A,@DPTR
0092 FD                MOV     R5,A
0093 A3                INC     DPTR
0094 E0                MOVX    A,@DPTR
0095 FE                MOV     R6,A
0096 A3                INC     DPTR
0097 E0                MOVX    A,@DPTR
0098 FF                MOV     R7,A
0099 900000      E     MOV     DPTR,#g_refNew
009C 120000      E     LCALL   ?C?LSTXDATA
C51 COMPILER V9.51   COMMAND_PROCESSING                                                    02/07/2017 16:12:02 PAGE 189 

009F         ?C0319:
                                           ; SOURCE LINE # 1486
009F 900000      E     MOV     DPTR,#c_mem+060H
00A2 E0                MOVX    A,@DPTR
00A3 FC                MOV     R4,A
00A4 A3                INC     DPTR
00A5 E0                MOVX    A,@DPTR
00A6 FD                MOV     R5,A
00A7 A3                INC     DPTR
00A8 E0                MOVX    A,@DPTR
00A9 FE                MOV     R6,A
00AA A3                INC     DPTR
00AB E0                MOVX    A,@DPTR
00AC FF                MOV     R7,A
00AD 900000      E     MOV     DPTR,#g_refNew+04H
00B0 E0                MOVX    A,@DPTR
00B1 F8                MOV     R0,A
00B2 A3                INC     DPTR
00B3 E0                MOVX    A,@DPTR
00B4 F9                MOV     R1,A
00B5 A3                INC     DPTR
00B6 E0                MOVX    A,@DPTR
00B7 FA                MOV     R2,A
00B8 A3                INC     DPTR
00B9 E0                MOVX    A,@DPTR
00BA FB                MOV     R3,A
00BB C3                CLR     C
00BC 120000      E     LCALL   ?C?SLCMP
00BF 5014              JNC     ?C0320
                                           ; SOURCE LINE # 1487
00C1 900000      E     MOV     DPTR,#c_mem+060H
00C4 E0                MOVX    A,@DPTR
00C5 FC                MOV     R4,A
00C6 A3                INC     DPTR
00C7 E0                MOVX    A,@DPTR
00C8 FD                MOV     R5,A
00C9 A3                INC     DPTR
00CA E0                MOVX    A,@DPTR
00CB FE                MOV     R6,A
00CC A3                INC     DPTR
00CD E0                MOVX    A,@DPTR
00CE FF                MOV     R7,A
00CF 900000      E     MOV     DPTR,#g_refNew+04H
00D2 120000      E     LCALL   ?C?LSTXDATA
00D5         ?C0320:
                                           ; SOURCE LINE # 1489
00D5 900000      E     MOV     DPTR,#c_mem+064H
00D8 E0                MOVX    A,@DPTR
00D9 FC                MOV     R4,A
00DA A3                INC     DPTR
00DB E0                MOVX    A,@DPTR
00DC FD                MOV     R5,A
00DD A3                INC     DPTR
00DE E0                MOVX    A,@DPTR
00DF FE                MOV     R6,A
00E0 A3                INC     DPTR
00E1 E0                MOVX    A,@DPTR
00E2 FF                MOV     R7,A
00E3 900000      E     MOV     DPTR,#g_refNew
00E6 E0                MOVX    A,@DPTR
00E7 F8                MOV     R0,A
00E8 A3                INC     DPTR
C51 COMPILER V9.51   COMMAND_PROCESSING                                                    02/07/2017 16:12:02 PAGE 190 

00E9 E0                MOVX    A,@DPTR
00EA F9                MOV     R1,A
00EB A3                INC     DPTR
00EC E0                MOVX    A,@DPTR
00ED FA                MOV     R2,A
00EE A3                INC     DPTR
00EF E0                MOVX    A,@DPTR
00F0 FB                MOV     R3,A
00F1 D3                SETB    C
00F2 120000      E     LCALL   ?C?SLCMP
00F5 4014              JC      ?C0321
                                           ; SOURCE LINE # 1490
00F7 900000      E     MOV     DPTR,#c_mem+064H
00FA E0                MOVX    A,@DPTR
00FB FC                MOV     R4,A
00FC A3                INC     DPTR
00FD E0                MOVX    A,@DPTR
00FE FD                MOV     R5,A
00FF A3                INC     DPTR
0100 E0                MOVX    A,@DPTR
0101 FE                MOV     R6,A
0102 A3                INC     DPTR
0103 E0                MOVX    A,@DPTR
0104 FF                MOV     R7,A
0105 900000      E     MOV     DPTR,#g_refNew
0108 120000      E     LCALL   ?C?LSTXDATA
010B         ?C0321:
                                           ; SOURCE LINE # 1491
010B 900000      E     MOV     DPTR,#c_mem+068H
010E E0                MOVX    A,@DPTR
010F FC                MOV     R4,A
0110 A3                INC     DPTR
0111 E0                MOVX    A,@DPTR
0112 FD                MOV     R5,A
0113 A3                INC     DPTR
0114 E0                MOVX    A,@DPTR
0115 FE                MOV     R6,A
0116 A3                INC     DPTR
0117 E0                MOVX    A,@DPTR
0118 FF                MOV     R7,A
0119 900000      E     MOV     DPTR,#g_refNew+04H
011C E0                MOVX    A,@DPTR
011D F8                MOV     R0,A
011E A3                INC     DPTR
011F E0                MOVX    A,@DPTR
0120 F9                MOV     R1,A
0121 A3                INC     DPTR
0122 E0                MOVX    A,@DPTR
0123 FA                MOV     R2,A
0124 A3                INC     DPTR
0125 E0                MOVX    A,@DPTR
0126 FB                MOV     R3,A
0127 D3                SETB    C
0128 120000      E     LCALL   ?C?SLCMP
012B 4014              JC      ?C0323
                                           ; SOURCE LINE # 1492
012D 900000      E     MOV     DPTR,#c_mem+068H
0130 E0                MOVX    A,@DPTR
0131 FC                MOV     R4,A
0132 A3                INC     DPTR
0133 E0                MOVX    A,@DPTR
0134 FD                MOV     R5,A
C51 COMPILER V9.51   COMMAND_PROCESSING                                                    02/07/2017 16:12:02 PAGE 191 

0135 A3                INC     DPTR
0136 E0                MOVX    A,@DPTR
0137 FE                MOV     R6,A
0138 A3                INC     DPTR
0139 E0                MOVX    A,@DPTR
013A FF                MOV     R7,A
013B 900000      E     MOV     DPTR,#g_refNew+04H
013E 120000      E     LCALL   ?C?LSTXDATA
                                           ; SOURCE LINE # 1493
                                           ; SOURCE LINE # 1494
0141         ?C0323:
0141 22                RET     
             ; FUNCTION cmd_set_inputs (END)

             ; FUNCTION cmd_set_pos_stiff (BEGIN)
                                           ; SOURCE LINE # 1496
                                           ; SOURCE LINE # 1498
0000 22                RET     
             ; FUNCTION cmd_set_pos_stiff (END)

             ; FUNCTION cmd_get_velocities (BEGIN)
                                           ; SOURCE LINE # 1500
                                           ; SOURCE LINE # 1515
0000 900000      R     MOV     DPTR,#packet_data
0003 7489              MOV     A,#089H
0005 F0                MOVX    @DPTR,A
                                           ; SOURCE LINE # 1517
0006 750004      R     MOV     index,#04H
0009         ?C0325:
0009 AF00        R     MOV     R7,index
000B 1500        R     DEC     index
000D EF                MOV     A,R7
000E 6028              JZ      ?C0326
                                           ; SOURCE LINE # 1518
0010 E500        R     MOV     A,index
0012 25E0              ADD     A,ACC
0014 2400        E     ADD     A,#LOW g_measOld
0016 F582              MOV     DPL,A
0018 E4                CLR     A
0019 3400        E     ADDC    A,#HIGH g_measOld
001B F583              MOV     DPH,A
001D E0                MOVX    A,@DPTR
001E FE                MOV     R6,A
001F A3                INC     DPTR
0020 E0                MOVX    A,@DPTR
0021 FF                MOV     R7,A
0022 E500        R     MOV     A,index
0024 25E0              ADD     A,ACC
0026 25E0              ADD     A,ACC
0028 2400        R     ADD     A,#LOW packet_data+01H
002A F582              MOV     DPL,A
002C E4                CLR     A
002D 3400        R     ADDC    A,#HIGH packet_data+01H
002F F583              MOV     DPH,A
0031 EE                MOV     A,R6
0032 F0                MOVX    @DPTR,A
0033 A3                INC     DPTR
0034 EF                MOV     A,R7
0035 F0                MOVX    @DPTR,A
0036 80D1              SJMP    ?C0325
0038         ?C0326:
                                           ; SOURCE LINE # 1523
C51 COMPILER V9.51   COMMAND_PROCESSING                                                    02/07/2017 16:12:02 PAGE 192 

0038 7B01              MOV     R3,#01H
003A 7A00        R     MOV     R2,#HIGH packet_data
003C 7900        R     MOV     R1,#LOW packet_data
003E 7D09              MOV     R5,#09H
0040 120000      E     LCALL   _LCRChecksum
0043 900000      R     MOV     DPTR,#packet_data+09H
0046 EF                MOV     A,R7
0047 F0                MOVX    @DPTR,A
                                           ; SOURCE LINE # 1524
0048 7B01              MOV     R3,#01H
004A 7A00        R     MOV     R2,#HIGH packet_data
004C 7900        R     MOV     R1,#LOW packet_data
004E 7D0A              MOV     R5,#0AH
0050 7C00              MOV     R4,#00H
0052 120000      R     LCALL   _commWrite
                                           ; SOURCE LINE # 1530
0055 22                RET     
             ; FUNCTION cmd_get_velocities (END)

             ; FUNCTION cmd_get_joystick (BEGIN)
                                           ; SOURCE LINE # 1533
                                           ; SOURCE LINE # 1537
0000 900000      R     MOV     DPTR,#packet_data
0003 7492              MOV     A,#092H
0005 F0                MOVX    @DPTR,A
                                           ; SOURCE LINE # 1539
0006 900000      E     MOV     DPTR,#g_measOld+030H
0009 E0                MOVX    A,@DPTR
000A FF                MOV     R7,A
000B A3                INC     DPTR
000C E0                MOVX    A,@DPTR
000D 900000      R     MOV     DPTR,#packet_data+01H
0010 CF                XCH     A,R7
0011 F0                MOVX    @DPTR,A
0012 A3                INC     DPTR
0013 EF                MOV     A,R7
0014 F0                MOVX    @DPTR,A
                                           ; SOURCE LINE # 1540
0015 900000      E     MOV     DPTR,#g_measOld+032H
0018 E0                MOVX    A,@DPTR
0019 FF                MOV     R7,A
001A A3                INC     DPTR
001B E0                MOVX    A,@DPTR
001C 900000      R     MOV     DPTR,#packet_data+03H
001F CF                XCH     A,R7
0020 F0                MOVX    @DPTR,A
0021 A3                INC     DPTR
0022 EF                MOV     A,R7
0023 F0                MOVX    @DPTR,A
                                           ; SOURCE LINE # 1542
0024 7B01              MOV     R3,#01H
0026 7A00        R     MOV     R2,#HIGH packet_data
0028 7900        R     MOV     R1,#LOW packet_data
002A 7D05              MOV     R5,#05H
002C 120000      E     LCALL   _LCRChecksum
002F 900000      R     MOV     DPTR,#packet_data+05H
0032 EF                MOV     A,R7
0033 F0                MOVX    @DPTR,A
                                           ; SOURCE LINE # 1544
0034 7B01              MOV     R3,#01H
0036 7A00        R     MOV     R2,#HIGH packet_data
0038 7900        R     MOV     R1,#LOW packet_data
C51 COMPILER V9.51   COMMAND_PROCESSING                                                    02/07/2017 16:12:02 PAGE 193 

003A 7D06              MOV     R5,#06H
003C 7C00              MOV     R4,#00H
003E 120000      R     LCALL   _commWrite
                                           ; SOURCE LINE # 1545
0041 22                RET     
             ; FUNCTION cmd_get_joystick (END)

             ; FUNCTION cmd_get_emg (BEGIN)
                                           ; SOURCE LINE # 1547
                                           ; SOURCE LINE # 1551
0000 900000      R     MOV     DPTR,#packet_data
0003 7488              MOV     A,#088H
0005 F0                MOVX    @DPTR,A
                                           ; SOURCE LINE # 1553
0006 900000      E     MOV     DPTR,#g_measOld+028H
0009 E0                MOVX    A,@DPTR
000A A3                INC     DPTR
000B E0                MOVX    A,@DPTR
000C A3                INC     DPTR
000D E0                MOVX    A,@DPTR
000E FF                MOV     R7,A
000F A3                INC     DPTR
0010 E0                MOVX    A,@DPTR
0011 900000      R     MOV     DPTR,#packet_data+01H
0014 CF                XCH     A,R7
0015 F0                MOVX    @DPTR,A
0016 A3                INC     DPTR
0017 EF                MOV     A,R7
0018 F0                MOVX    @DPTR,A
                                           ; SOURCE LINE # 1554
0019 900000      E     MOV     DPTR,#g_measOld+02CH
001C E0                MOVX    A,@DPTR
001D A3                INC     DPTR
001E E0                MOVX    A,@DPTR
001F A3                INC     DPTR
0020 E0                MOVX    A,@DPTR
0021 FF                MOV     R7,A
0022 A3                INC     DPTR
0023 E0                MOVX    A,@DPTR
0024 900000      R     MOV     DPTR,#packet_data+03H
0027 CF                XCH     A,R7
0028 F0                MOVX    @DPTR,A
0029 A3                INC     DPTR
002A EF                MOV     A,R7
002B F0                MOVX    @DPTR,A
                                           ; SOURCE LINE # 1556
002C 7B01              MOV     R3,#01H
002E 7A00        R     MOV     R2,#HIGH packet_data
0030 7900        R     MOV     R1,#LOW packet_data
0032 7D05              MOV     R5,#05H
0034 120000      E     LCALL   _LCRChecksum
0037 900000      R     MOV     DPTR,#packet_data+05H
003A EF                MOV     A,R7
003B F0                MOVX    @DPTR,A
                                           ; SOURCE LINE # 1558
003C 7B01              MOV     R3,#01H
003E 7A00        R     MOV     R2,#HIGH packet_data
0040 7900        R     MOV     R1,#LOW packet_data
0042 7D06              MOV     R5,#06H
0044 7C00              MOV     R4,#00H
0046 120000      R     LCALL   _commWrite
                                           ; SOURCE LINE # 1559
C51 COMPILER V9.51   COMMAND_PROCESSING                                                    02/07/2017 16:12:02 PAGE 194 

0049 22                RET     
             ; FUNCTION cmd_get_emg (END)

             ; FUNCTION cmd_activate (BEGIN)
                                           ; SOURCE LINE # 1561
                                           ; SOURCE LINE # 1564
0000 900000      E     MOV     DPTR,#g_rx+01H
0003 E0                MOVX    A,@DPTR
0004 900000      E     MOV     DPTR,#g_refNew+08H
0007 F0                MOVX    @DPTR,A
                                           ; SOURCE LINE # 1567
0008 900000      E     MOV     DPTR,#g_mem+036H
000B E0                MOVX    A,@DPTR
000C FF                MOV     R7,A
000D 6003              JZ      ?C0331
000F B40328            CJNE    A,#03H,?C0330
0012         ?C0331:
                                           ; SOURCE LINE # 1568
0012 900000      E     MOV     DPTR,#g_meas+010H
0015 E0                MOVX    A,@DPTR
0016 FC                MOV     R4,A
0017 A3                INC     DPTR
0018 E0                MOVX    A,@DPTR
0019 FD                MOV     R5,A
001A A3                INC     DPTR
001B E0                MOVX    A,@DPTR
001C FE                MOV     R6,A
001D A3                INC     DPTR
001E E0                MOVX    A,@DPTR
001F FF                MOV     R7,A
0020 900000      E     MOV     DPTR,#g_refNew
0023 120000      E     LCALL   ?C?LSTXDATA
                                           ; SOURCE LINE # 1569
0026 900000      E     MOV     DPTR,#g_meas+018H
0029 E0                MOVX    A,@DPTR
002A FC                MOV     R4,A
002B A3                INC     DPTR
002C E0                MOVX    A,@DPTR
002D FD                MOV     R5,A
002E A3                INC     DPTR
002F E0                MOVX    A,@DPTR
0030 FE                MOV     R6,A
0031 A3                INC     DPTR
0032 E0                MOVX    A,@DPTR
0033 FF                MOV     R7,A
0034 900000      E     MOV     DPTR,#g_refNew+04H
0037 120000      E     LCALL   ?C?LSTXDATA
                                           ; SOURCE LINE # 1570
003A         ?C0330:
                                           ; SOURCE LINE # 1573
003A 900000      E     MOV     DPTR,#g_refNew+08H
003D E0                MOVX    A,@DPTR
003E FF                MOV     R7,A
003F 120000      E     LCALL   _MOTOR_ON_OFF_Write
                                           ; SOURCE LINE # 1575
0042 22                RET     
             ; FUNCTION cmd_activate (END)

             ; FUNCTION cmd_set_watchdog (BEGIN)
                                           ; SOURCE LINE # 1577
                                           ; SOURCE LINE # 1579
0000 900000      E     MOV     DPTR,#g_rx+01H
C51 COMPILER V9.51   COMMAND_PROCESSING                                                    02/07/2017 16:12:02 PAGE 195 

0003 E0                MOVX    A,@DPTR
0004 D3                SETB    C
0005 9400              SUBB    A,#00H
0007 500B              JNC     ?C0333
                                           ; SOURCE LINE # 1581
0009 7F01              MOV     R7,#01H
000B 120000      E     LCALL   _WATCHDOG_ENABLER_Write
                                           ; SOURCE LINE # 1582
000E E4                CLR     A
000F 900000      E     MOV     DPTR,#g_mem+06DH
0012 F0                MOVX    @DPTR,A
                                           ; SOURCE LINE # 1583
0013 22                RET     
0014         ?C0333:
                                           ; SOURCE LINE # 1584
                                           ; SOURCE LINE # 1586
0014 900000      E     MOV     DPTR,#g_rx+01H
0017 E0                MOVX    A,@DPTR
0018 D3                SETB    C
0019 94FA              SUBB    A,#0FAH
001B 4003              JC      ?C0335
                                           ; SOURCE LINE # 1587
001D 74FA              MOV     A,#0FAH
001F F0                MOVX    @DPTR,A
0020         ?C0335:
                                           ; SOURCE LINE # 1592
0020 900000      E     MOV     DPTR,#g_rx+01H
0023 E0                MOVX    A,@DPTR
0024 FF                MOV     R7,A
0025 7E00              MOV     R6,#00H
0027 7C01              MOV     R4,#01H
0029 7DF4              MOV     R5,#0F4H
002B 120000      E     LCALL   ?C?LIMUL
002E 780A              MOV     R0,#0AH
0030 120000      E     LCALL   ?C?ULSHR
0033 900000      E     MOV     DPTR,#g_mem+06DH
0036 EF                MOV     A,R7
0037 F0                MOVX    @DPTR,A
                                           ; SOURCE LINE # 1593
0038 120000      E     LCALL   _WATCHDOG_COUNTER_WritePeriod
                                           ; SOURCE LINE # 1594
003B E4                CLR     A
003C FF                MOV     R7,A
003D 120000      E     LCALL   _WATCHDOG_ENABLER_Write
                                           ; SOURCE LINE # 1595
                                           ; SOURCE LINE # 1596
0040         ?C0336:
0040 22                RET     
             ; FUNCTION cmd_set_watchdog (END)

             ; FUNCTION cmd_get_activate (BEGIN)
                                           ; SOURCE LINE # 1598
                                           ; SOURCE LINE # 1603
0000 900000      R     MOV     DPTR,#packet_data
0003 7481              MOV     A,#081H
0005 F0                MOVX    @DPTR,A
                                           ; SOURCE LINE # 1606
0006 900000      E     MOV     DPTR,#g_ref+08H
0009 E0                MOVX    A,@DPTR
000A 900000      R     MOV     DPTR,#packet_data+01H
000D F0                MOVX    @DPTR,A
                                           ; SOURCE LINE # 1609
C51 COMPILER V9.51   COMMAND_PROCESSING                                                    02/07/2017 16:12:02 PAGE 196 

000E 7B01              MOV     R3,#01H
0010 7A00        R     MOV     R2,#HIGH packet_data
0012 7900        R     MOV     R1,#LOW packet_data
0014 7D02              MOV     R5,#02H
0016 120000      E     LCALL   _LCRChecksum
0019 900000      R     MOV     DPTR,#packet_data+02H
001C EF                MOV     A,R7
001D F0                MOVX    @DPTR,A
                                           ; SOURCE LINE # 1612
001E 7B01              MOV     R3,#01H
0020 7A00        R     MOV     R2,#HIGH packet_data
0022 7900        R     MOV     R1,#LOW packet_data
0024 7D03              MOV     R5,#03H
0026 7C00              MOV     R4,#00H
0028 120000      R     LCALL   _commWrite
                                           ; SOURCE LINE # 1614
002B 22                RET     
             ; FUNCTION cmd_get_activate (END)

             ; FUNCTION cmd_ping (BEGIN)
                                           ; SOURCE LINE # 1616
                                           ; SOURCE LINE # 1621
0000 E4                CLR     A
0001 900000      R     MOV     DPTR,#packet_data
0004 F0                MOVX    @DPTR,A
                                           ; SOURCE LINE # 1624
0005 A3                INC     DPTR
0006 F0                MOVX    @DPTR,A
                                           ; SOURCE LINE # 1627
0007 7B01              MOV     R3,#01H
0009 7A00        R     MOV     R2,#HIGH packet_data
000B 7900        R     MOV     R1,#LOW packet_data
000D 7D02              MOV     R5,#02H
000F FC                MOV     R4,A
0010 120000      R     LCALL   _commWrite
                                           ; SOURCE LINE # 1628
0013 22                RET     
             ; FUNCTION cmd_ping (END)

             ; FUNCTION cmd_store_params (BEGIN)
                                           ; SOURCE LINE # 1630
                                           ; SOURCE LINE # 1632
0000 750002      R     MOV     packet_lenght,#02H
                                           ; SOURCE LINE # 1637
0003 900000      E     MOV     DPTR,#c_mem+035H
0006 E0                MOVX    A,@DPTR
0007 6003              JZ      $ + 5H
0009 020000      R     LJMP    ?C0339
                                           ; SOURCE LINE # 1639
000C 900000      E     MOV     DPTR,#g_mem+04BH
000F E0                MOVX    A,@DPTR
0010 FC                MOV     R4,A
0011 A3                INC     DPTR
0012 E0                MOVX    A,@DPTR
0013 FD                MOV     R5,A
0014 A3                INC     DPTR
0015 E0                MOVX    A,@DPTR
0016 FE                MOV     R6,A
0017 A3                INC     DPTR
0018 E0                MOVX    A,@DPTR
0019 FF                MOV     R7,A
001A 900000      E     MOV     DPTR,#c_mem+04BH
C51 COMPILER V9.51   COMMAND_PROCESSING                                                    02/07/2017 16:12:02 PAGE 197 

001D E0                MOVX    A,@DPTR
001E F8                MOV     R0,A
001F A3                INC     DPTR
0020 E0                MOVX    A,@DPTR
0021 F9                MOV     R1,A
0022 A3                INC     DPTR
0023 E0                MOVX    A,@DPTR
0024 FA                MOV     R2,A
0025 A3                INC     DPTR
0026 E0                MOVX    A,@DPTR
0027 FB                MOV     R3,A
0028 120000      E     LCALL   ?C?FPCMP3
002B 6058              JZ      ?C0340
                                           ; SOURCE LINE # 1641
002D 900000      E     MOV     DPTR,#g_refNew
0030 E0                MOVX    A,@DPTR
0031 FC                MOV     R4,A
0032 A3                INC     DPTR
0033 E0                MOVX    A,@DPTR
0034 FD                MOV     R5,A
0035 A3                INC     DPTR
0036 E0                MOVX    A,@DPTR
0037 FE                MOV     R6,A
0038 A3                INC     DPTR
0039 E0                MOVX    A,@DPTR
003A FF                MOV     R7,A
003B EC                MOV     A,R4
003C 120000      E     LCALL   ?C?FCASTL
003F 900000      E     MOV     DPTR,#c_mem+04BH
0042 E0                MOVX    A,@DPTR
0043 F8                MOV     R0,A
0044 A3                INC     DPTR
0045 E0                MOVX    A,@DPTR
0046 F9                MOV     R1,A
0047 A3                INC     DPTR
0048 E0                MOVX    A,@DPTR
0049 FA                MOV     R2,A
004A A3                INC     DPTR
004B E0                MOVX    A,@DPTR
004C FB                MOV     R3,A
004D 120000      E     LCALL   ?C?FPDIV
0050 120000      E     LCALL   ?C?CASTF
0053 900000      E     MOV     DPTR,#g_refNew
0056 120000      E     LCALL   ?C?LSTXDATA
                                           ; SOURCE LINE # 1643
0059 900000      E     MOV     DPTR,#g_refNew
005C E0                MOVX    A,@DPTR
005D FC                MOV     R4,A
005E A3                INC     DPTR
005F E0                MOVX    A,@DPTR
0060 FD                MOV     R5,A
0061 A3                INC     DPTR
0062 E0                MOVX    A,@DPTR
0063 FE                MOV     R6,A
0064 A3                INC     DPTR
0065 E0                MOVX    A,@DPTR
0066 FF                MOV     R7,A
0067 EC                MOV     A,R4
0068 120000      E     LCALL   ?C?FCASTL
006B 900000      E     MOV     DPTR,#g_mem+04BH
006E E0                MOVX    A,@DPTR
006F F8                MOV     R0,A
C51 COMPILER V9.51   COMMAND_PROCESSING                                                    02/07/2017 16:12:02 PAGE 198 

0070 A3                INC     DPTR
0071 E0                MOVX    A,@DPTR
0072 F9                MOV     R1,A
0073 A3                INC     DPTR
0074 E0                MOVX    A,@DPTR
0075 FA                MOV     R2,A
0076 A3                INC     DPTR
0077 E0                MOVX    A,@DPTR
0078 FB                MOV     R3,A
0079 120000      E     LCALL   ?C?FPMUL
007C 120000      E     LCALL   ?C?CASTF
007F 900000      E     MOV     DPTR,#g_refNew
0082 120000      E     LCALL   ?C?LSTXDATA
                                           ; SOURCE LINE # 1644
0085         ?C0340:
                                           ; SOURCE LINE # 1646
0085 900000      E     MOV     DPTR,#g_mem+04FH
0088 E0                MOVX    A,@DPTR
0089 FC                MOV     R4,A
008A A3                INC     DPTR
008B E0                MOVX    A,@DPTR
008C FD                MOV     R5,A
008D A3                INC     DPTR
008E E0                MOVX    A,@DPTR
008F FE                MOV     R6,A
0090 A3                INC     DPTR
0091 E0                MOVX    A,@DPTR
0092 FF                MOV     R7,A
0093 900000      E     MOV     DPTR,#c_mem+04FH
0096 E0                MOVX    A,@DPTR
0097 F8                MOV     R0,A
0098 A3                INC     DPTR
0099 E0                MOVX    A,@DPTR
009A F9                MOV     R1,A
009B A3                INC     DPTR
009C E0                MOVX    A,@DPTR
009D FA                MOV     R2,A
009E A3                INC     DPTR
009F E0                MOVX    A,@DPTR
00A0 FB                MOV     R3,A
00A1 120000      E     LCALL   ?C?FPCMP3
00A4 6058              JZ      ?C0341
                                           ; SOURCE LINE # 1648
00A6 900000      E     MOV     DPTR,#g_refNew+04H
00A9 E0                MOVX    A,@DPTR
00AA FC                MOV     R4,A
00AB A3                INC     DPTR
00AC E0                MOVX    A,@DPTR
00AD FD                MOV     R5,A
00AE A3                INC     DPTR
00AF E0                MOVX    A,@DPTR
00B0 FE                MOV     R6,A
00B1 A3                INC     DPTR
00B2 E0                MOVX    A,@DPTR
00B3 FF                MOV     R7,A
00B4 EC                MOV     A,R4
00B5 120000      E     LCALL   ?C?FCASTL
00B8 900000      E     MOV     DPTR,#c_mem+04FH
00BB E0                MOVX    A,@DPTR
00BC F8                MOV     R0,A
00BD A3                INC     DPTR
00BE E0                MOVX    A,@DPTR
C51 COMPILER V9.51   COMMAND_PROCESSING                                                    02/07/2017 16:12:02 PAGE 199 

00BF F9                MOV     R1,A
00C0 A3                INC     DPTR
00C1 E0                MOVX    A,@DPTR
00C2 FA                MOV     R2,A
00C3 A3                INC     DPTR
00C4 E0                MOVX    A,@DPTR
00C5 FB                MOV     R3,A
00C6 120000      E     LCALL   ?C?FPDIV
00C9 120000      E     LCALL   ?C?CASTF
00CC 900000      E     MOV     DPTR,#g_refNew+04H
00CF 120000      E     LCALL   ?C?LSTXDATA
                                           ; SOURCE LINE # 1650
00D2 900000      E     MOV     DPTR,#g_refNew+04H
00D5 E0                MOVX    A,@DPTR
00D6 FC                MOV     R4,A
00D7 A3                INC     DPTR
00D8 E0                MOVX    A,@DPTR
00D9 FD                MOV     R5,A
00DA A3                INC     DPTR
00DB E0                MOVX    A,@DPTR
00DC FE                MOV     R6,A
00DD A3                INC     DPTR
00DE E0                MOVX    A,@DPTR
00DF FF                MOV     R7,A
00E0 EC                MOV     A,R4
00E1 120000      E     LCALL   ?C?FCASTL
00E4 900000      E     MOV     DPTR,#g_mem+04FH
00E7 E0                MOVX    A,@DPTR
00E8 F8                MOV     R0,A
00E9 A3                INC     DPTR
00EA E0                MOVX    A,@DPTR
00EB F9                MOV     R1,A
00EC A3                INC     DPTR
00ED E0                MOVX    A,@DPTR
00EE FA                MOV     R2,A
00EF A3                INC     DPTR
00F0 E0                MOVX    A,@DPTR
00F1 FB                MOV     R3,A
00F2 120000      E     LCALL   ?C?FPMUL
00F5 120000      E     LCALL   ?C?CASTF
00F8 900000      E     MOV     DPTR,#g_refNew+04H
00FB 120000      E     LCALL   ?C?LSTXDATA
                                           ; SOURCE LINE # 1651
00FE         ?C0341:
                                           ; SOURCE LINE # 1653
00FE 900000      E     MOV     DPTR,#g_mem+03BH
0101 E0                MOVX    A,@DPTR
0102 FC                MOV     R4,A
0103 A3                INC     DPTR
0104 E0                MOVX    A,@DPTR
0105 FD                MOV     R5,A
0106 A3                INC     DPTR
0107 E0                MOVX    A,@DPTR
0108 FE                MOV     R6,A
0109 A3                INC     DPTR
010A E0                MOVX    A,@DPTR
010B FF                MOV     R7,A
010C 900000      E     MOV     DPTR,#c_mem+03BH
010F E0                MOVX    A,@DPTR
0110 F8                MOV     R0,A
0111 A3                INC     DPTR
0112 E0                MOVX    A,@DPTR
C51 COMPILER V9.51   COMMAND_PROCESSING                                                    02/07/2017 16:12:02 PAGE 200 

0113 F9                MOV     R1,A
0114 A3                INC     DPTR
0115 E0                MOVX    A,@DPTR
0116 FA                MOV     R2,A
0117 A3                INC     DPTR
0118 E0                MOVX    A,@DPTR
0119 FB                MOV     R3,A
011A C3                CLR     C
011B 120000      E     LCALL   ?C?SLCMP
011E 6057              JZ      ?C0342
                                           ; SOURCE LINE # 1654
0120 900000      E     MOV     DPTR,#g_refNew
0123 E0                MOVX    A,@DPTR
0124 F8                MOV     R0,A
0125 A3                INC     DPTR
0126 E0                MOVX    A,@DPTR
0127 F9                MOV     R1,A
0128 A3                INC     DPTR
0129 E0                MOVX    A,@DPTR
012A FA                MOV     R2,A
012B A3                INC     DPTR
012C E0                MOVX    A,@DPTR
012D FB                MOV     R3,A
012E C000              PUSH    AR0
0130 C001              PUSH    AR1
0132 C002              PUSH    AR2
0134 C003              PUSH    AR3
0136 900000      E     MOV     DPTR,#c_mem+03BH
0139 E0                MOVX    A,@DPTR
013A F8                MOV     R0,A
013B A3                INC     DPTR
013C E0                MOVX    A,@DPTR
013D F9                MOV     R1,A
013E A3                INC     DPTR
013F E0                MOVX    A,@DPTR
0140 FA                MOV     R2,A
0141 A3                INC     DPTR
0142 E0                MOVX    A,@DPTR
0143 FB                MOV     R3,A
0144 900000      E     MOV     DPTR,#g_mem+03BH
0147 E0                MOVX    A,@DPTR
0148 FC                MOV     R4,A
0149 A3                INC     DPTR
014A E0                MOVX    A,@DPTR
014B FD                MOV     R5,A
014C A3                INC     DPTR
014D E0                MOVX    A,@DPTR
014E FE                MOV     R6,A
014F A3                INC     DPTR
0150 E0                MOVX    A,@DPTR
0151 C3                CLR     C
0152 9B                SUBB    A,R3
0153 FF                MOV     R7,A
0154 EE                MOV     A,R6
0155 9A                SUBB    A,R2
0156 FE                MOV     R6,A
0157 ED                MOV     A,R5
0158 99                SUBB    A,R1
0159 FD                MOV     R5,A
015A EC                MOV     A,R4
015B 98                SUBB    A,R0
015C FC                MOV     R4,A
C51 COMPILER V9.51   COMMAND_PROCESSING                                                    02/07/2017 16:12:02 PAGE 201 

015D D003              POP     AR3
015F D002              POP     AR2
0161 D001              POP     AR1
0163 D000              POP     AR0
0165 EB                MOV     A,R3
0166 2F                ADD     A,R7
0167 FF                MOV     R7,A
0168 EA                MOV     A,R2
0169 3E                ADDC    A,R6
016A FE                MOV     R6,A
016B E9                MOV     A,R1
016C 3D                ADDC    A,R5
016D FD                MOV     R5,A
016E E8                MOV     A,R0
016F 3C                ADDC    A,R4
0170 FC                MOV     R4,A
0171 900000      E     MOV     DPTR,#g_refNew
0174 120000      E     LCALL   ?C?LSTXDATA
0177         ?C0342:
                                           ; SOURCE LINE # 1656
0177 900000      E     MOV     DPTR,#g_mem+03FH
017A E0                MOVX    A,@DPTR
017B FC                MOV     R4,A
017C A3                INC     DPTR
017D E0                MOVX    A,@DPTR
017E FD                MOV     R5,A
017F A3                INC     DPTR
0180 E0                MOVX    A,@DPTR
0181 FE                MOV     R6,A
0182 A3                INC     DPTR
0183 E0                MOVX    A,@DPTR
0184 FF                MOV     R7,A
0185 900000      E     MOV     DPTR,#c_mem+03FH
0188 E0                MOVX    A,@DPTR
0189 F8                MOV     R0,A
018A A3                INC     DPTR
018B E0                MOVX    A,@DPTR
018C F9                MOV     R1,A
018D A3                INC     DPTR
018E E0                MOVX    A,@DPTR
018F FA                MOV     R2,A
0190 A3                INC     DPTR
0191 E0                MOVX    A,@DPTR
0192 FB                MOV     R3,A
0193 C3                CLR     C
0194 120000      E     LCALL   ?C?SLCMP
0197 6057              JZ      ?C0343
                                           ; SOURCE LINE # 1657
0199 900000      E     MOV     DPTR,#g_refNew+04H
019C E0                MOVX    A,@DPTR
019D F8                MOV     R0,A
019E A3                INC     DPTR
019F E0                MOVX    A,@DPTR
01A0 F9                MOV     R1,A
01A1 A3                INC     DPTR
01A2 E0                MOVX    A,@DPTR
01A3 FA                MOV     R2,A
01A4 A3                INC     DPTR
01A5 E0                MOVX    A,@DPTR
01A6 FB                MOV     R3,A
01A7 C000              PUSH    AR0
01A9 C001              PUSH    AR1
C51 COMPILER V9.51   COMMAND_PROCESSING                                                    02/07/2017 16:12:02 PAGE 202 

01AB C002              PUSH    AR2
01AD C003              PUSH    AR3
01AF 900000      E     MOV     DPTR,#c_mem+03FH
01B2 E0                MOVX    A,@DPTR
01B3 F8                MOV     R0,A
01B4 A3                INC     DPTR
01B5 E0                MOVX    A,@DPTR
01B6 F9                MOV     R1,A
01B7 A3                INC     DPTR
01B8 E0                MOVX    A,@DPTR
01B9 FA                MOV     R2,A
01BA A3                INC     DPTR
01BB E0                MOVX    A,@DPTR
01BC FB                MOV     R3,A
01BD 900000      E     MOV     DPTR,#g_mem+03FH
01C0 E0                MOVX    A,@DPTR
01C1 FC                MOV     R4,A
01C2 A3                INC     DPTR
01C3 E0                MOVX    A,@DPTR
01C4 FD                MOV     R5,A
01C5 A3                INC     DPTR
01C6 E0                MOVX    A,@DPTR
01C7 FE                MOV     R6,A
01C8 A3                INC     DPTR
01C9 E0                MOVX    A,@DPTR
01CA C3                CLR     C
01CB 9B                SUBB    A,R3
01CC FF                MOV     R7,A
01CD EE                MOV     A,R6
01CE 9A                SUBB    A,R2
01CF FE                MOV     R6,A
01D0 ED                MOV     A,R5
01D1 99                SUBB    A,R1
01D2 FD                MOV     R5,A
01D3 EC                MOV     A,R4
01D4 98                SUBB    A,R0
01D5 FC                MOV     R4,A
01D6 D003              POP     AR3
01D8 D002              POP     AR2
01DA D001              POP     AR1
01DC D000              POP     AR0
01DE EB                MOV     A,R3
01DF 2F                ADD     A,R7
01E0 FF                MOV     R7,A
01E1 EA                MOV     A,R2
01E2 3E                ADDC    A,R6
01E3 FE                MOV     R6,A
01E4 E9                MOV     A,R1
01E5 3D                ADDC    A,R5
01E6 FD                MOV     R5,A
01E7 E8                MOV     A,R0
01E8 3C                ADDC    A,R4
01E9 FC                MOV     R4,A
01EA 900000      E     MOV     DPTR,#g_refNew+04H
01ED 120000      E     LCALL   ?C?LSTXDATA
01F0         ?C0343:
                                           ; SOURCE LINE # 1660
01F0 900000      E     MOV     DPTR,#c_mem+05BH
01F3 E0                MOVX    A,@DPTR
01F4 7003              JNZ     $ + 5H
01F6 020000      R     LJMP    ?C0339
                                           ; SOURCE LINE # 1661
C51 COMPILER V9.51   COMMAND_PROCESSING                                                    02/07/2017 16:12:02 PAGE 203 

01F9 A3                INC     DPTR
01FA E0                MOVX    A,@DPTR
01FB FC                MOV     R4,A
01FC A3                INC     DPTR
01FD E0                MOVX    A,@DPTR
01FE FD                MOV     R5,A
01FF A3                INC     DPTR
0200 E0                MOVX    A,@DPTR
0201 FE                MOV     R6,A
0202 A3                INC     DPTR
0203 E0                MOVX    A,@DPTR
0204 FF                MOV     R7,A
0205 900000      E     MOV     DPTR,#g_refNew
0208 E0                MOVX    A,@DPTR
0209 F8                MOV     R0,A
020A A3                INC     DPTR
020B E0                MOVX    A,@DPTR
020C F9                MOV     R1,A
020D A3                INC     DPTR
020E E0                MOVX    A,@DPTR
020F FA                MOV     R2,A
0210 A3                INC     DPTR
0211 E0                MOVX    A,@DPTR
0212 FB                MOV     R3,A
0213 C3                CLR     C
0214 120000      E     LCALL   ?C?SLCMP
0217 5014              JNC     ?C0345
0219 900000      E     MOV     DPTR,#c_mem+05CH
021C E0                MOVX    A,@DPTR
021D FC                MOV     R4,A
021E A3                INC     DPTR
021F E0                MOVX    A,@DPTR
0220 FD                MOV     R5,A
0221 A3                INC     DPTR
0222 E0                MOVX    A,@DPTR
0223 FE                MOV     R6,A
0224 A3                INC     DPTR
0225 E0                MOVX    A,@DPTR
0226 FF                MOV     R7,A
0227 900000      E     MOV     DPTR,#g_refNew
022A 120000      E     LCALL   ?C?LSTXDATA
022D         ?C0345:
                                           ; SOURCE LINE # 1662
022D 900000      E     MOV     DPTR,#c_mem+060H
0230 E0                MOVX    A,@DPTR
0231 FC                MOV     R4,A
0232 A3                INC     DPTR
0233 E0                MOVX    A,@DPTR
0234 FD                MOV     R5,A
0235 A3                INC     DPTR
0236 E0                MOVX    A,@DPTR
0237 FE                MOV     R6,A
0238 A3                INC     DPTR
0239 E0                MOVX    A,@DPTR
023A FF                MOV     R7,A
023B 900000      E     MOV     DPTR,#g_refNew+04H
023E E0                MOVX    A,@DPTR
023F F8                MOV     R0,A
0240 A3                INC     DPTR
0241 E0                MOVX    A,@DPTR
0242 F9                MOV     R1,A
0243 A3                INC     DPTR
C51 COMPILER V9.51   COMMAND_PROCESSING                                                    02/07/2017 16:12:02 PAGE 204 

0244 E0                MOVX    A,@DPTR
0245 FA                MOV     R2,A
0246 A3                INC     DPTR
0247 E0                MOVX    A,@DPTR
0248 FB                MOV     R3,A
0249 C3                CLR     C
024A 120000      E     LCALL   ?C?SLCMP
024D 5014              JNC     ?C0346
024F 900000      E     MOV     DPTR,#c_mem+060H
0252 E0                MOVX    A,@DPTR
0253 FC                MOV     R4,A
0254 A3                INC     DPTR
0255 E0                MOVX    A,@DPTR
0256 FD                MOV     R5,A
0257 A3                INC     DPTR
0258 E0                MOVX    A,@DPTR
0259 FE                MOV     R6,A
025A A3                INC     DPTR
025B E0                MOVX    A,@DPTR
025C FF                MOV     R7,A
025D 900000      E     MOV     DPTR,#g_refNew+04H
0260 120000      E     LCALL   ?C?LSTXDATA
0263         ?C0346:
                                           ; SOURCE LINE # 1664
0263 900000      E     MOV     DPTR,#c_mem+064H
0266 E0                MOVX    A,@DPTR
0267 FC                MOV     R4,A
0268 A3                INC     DPTR
0269 E0                MOVX    A,@DPTR
026A FD                MOV     R5,A
026B A3                INC     DPTR
026C E0                MOVX    A,@DPTR
026D FE                MOV     R6,A
026E A3                INC     DPTR
026F E0                MOVX    A,@DPTR
0270 FF                MOV     R7,A
0271 900000      E     MOV     DPTR,#g_refNew
0274 E0                MOVX    A,@DPTR
0275 F8                MOV     R0,A
0276 A3                INC     DPTR
0277 E0                MOVX    A,@DPTR
0278 F9                MOV     R1,A
0279 A3                INC     DPTR
027A E0                MOVX    A,@DPTR
027B FA                MOV     R2,A
027C A3                INC     DPTR
027D E0                MOVX    A,@DPTR
027E FB                MOV     R3,A
027F D3                SETB    C
0280 120000      E     LCALL   ?C?SLCMP
0283 4014              JC      ?C0347
0285 900000      E     MOV     DPTR,#c_mem+064H
0288 E0                MOVX    A,@DPTR
0289 FC                MOV     R4,A
028A A3                INC     DPTR
028B E0                MOVX    A,@DPTR
028C FD                MOV     R5,A
028D A3                INC     DPTR
028E E0                MOVX    A,@DPTR
028F FE                MOV     R6,A
0290 A3                INC     DPTR
0291 E0                MOVX    A,@DPTR
C51 COMPILER V9.51   COMMAND_PROCESSING                                                    02/07/2017 16:12:02 PAGE 205 

0292 FF                MOV     R7,A
0293 900000      E     MOV     DPTR,#g_refNew
0296 120000      E     LCALL   ?C?LSTXDATA
0299         ?C0347:
                                           ; SOURCE LINE # 1665
0299 900000      E     MOV     DPTR,#c_mem+068H
029C E0                MOVX    A,@DPTR
029D FC                MOV     R4,A
029E A3                INC     DPTR
029F E0                MOVX    A,@DPTR
02A0 FD                MOV     R5,A
02A1 A3                INC     DPTR
02A2 E0                MOVX    A,@DPTR
02A3 FE                MOV     R6,A
02A4 A3                INC     DPTR
02A5 E0                MOVX    A,@DPTR
02A6 FF                MOV     R7,A
02A7 900000      E     MOV     DPTR,#g_refNew+04H
02AA E0                MOVX    A,@DPTR
02AB F8                MOV     R0,A
02AC A3                INC     DPTR
02AD E0                MOVX    A,@DPTR
02AE F9                MOV     R1,A
02AF A3                INC     DPTR
02B0 E0                MOVX    A,@DPTR
02B1 FA                MOV     R2,A
02B2 A3                INC     DPTR
02B3 E0                MOVX    A,@DPTR
02B4 FB                MOV     R3,A
02B5 D3                SETB    C
02B6 120000      E     LCALL   ?C?SLCMP
02B9 4014              JC      ?C0339
02BB 900000      E     MOV     DPTR,#c_mem+068H
02BE E0                MOVX    A,@DPTR
02BF FC                MOV     R4,A
02C0 A3                INC     DPTR
02C1 E0                MOVX    A,@DPTR
02C2 FD                MOV     R5,A
02C3 A3                INC     DPTR
02C4 E0                MOVX    A,@DPTR
02C5 FE                MOV     R6,A
02C6 A3                INC     DPTR
02C7 E0                MOVX    A,@DPTR
02C8 FF                MOV     R7,A
02C9 900000      E     MOV     DPTR,#g_refNew+04H
02CC 120000      E     LCALL   ?C?LSTXDATA
                                           ; SOURCE LINE # 1666
                                           ; SOURCE LINE # 1667
02CF         ?C0339:
                                           ; SOURCE LINE # 1670
02CF 900000      E     MOV     DPTR,#g_mem+01H
02D2 E0                MOVX    A,@DPTR
02D3 FF                MOV     R7,A
02D4 900000      E     MOV     DPTR,#c_mem+01H
02D7 E0                MOVX    A,@DPTR
02D8 FE                MOV     R6,A
02D9 6F                XRL     A,R7
02DA 603F              JZ      ?C0349
                                           ; SOURCE LINE # 1671
02DC 8E00        R     MOV     old_id,R6
                                           ; SOURCE LINE # 1672
02DE E4                CLR     A
C51 COMPILER V9.51   COMMAND_PROCESSING                                                    02/07/2017 16:12:02 PAGE 206 

02DF FF                MOV     R7,A
02E0 FE                MOV     R6,A
02E1 120000      R     LCALL   _memStore
02E4 EF                MOV     A,R7
02E5 601B              JZ      ?C0350
                                           ; SOURCE LINE # 1673
02E7 750001      R     MOV     packet_data,#01H
                                           ; SOURCE LINE # 1674
02EA 750001      R     MOV     packet_data+01H,#01H
                                           ; SOURCE LINE # 1675
02ED 7B00              MOV     R3,#00H
02EF 7A00        R     MOV     R2,#HIGH packet_data
02F1 7900        R     MOV     R1,#LOW packet_data
02F3 E500        R     MOV     A,packet_lenght
02F5 FD                MOV     R5,A
02F6 7C00              MOV     R4,#00H
02F8 900000      R     MOV     DPTR,#?_commWrite_old_id?BYTE+05H
02FB E500        R     MOV     A,old_id
02FD F0                MOVX    @DPTR,A
02FE 120000      R     LCALL   _commWrite_old_id
                                           ; SOURCE LINE # 1676
0301 22                RET     
0302         ?C0350:
                                           ; SOURCE LINE # 1677
                                           ; SOURCE LINE # 1678
0302 E4                CLR     A
0303 F500        R     MOV     packet_data,A
                                           ; SOURCE LINE # 1679
0305 F500        R     MOV     packet_data+01H,A
                                           ; SOURCE LINE # 1680
0307 FB                MOV     R3,A
0308 7A00        R     MOV     R2,#HIGH packet_data
030A 7900        R     MOV     R1,#LOW packet_data
030C E500        R     MOV     A,packet_lenght
030E FD                MOV     R5,A
030F 7C00              MOV     R4,#00H
0311 900000      R     MOV     DPTR,#?_commWrite_old_id?BYTE+05H
0314 E500        R     MOV     A,old_id
0316 F0                MOVX    @DPTR,A
0317 120000      R     LCALL   _commWrite_old_id
                                           ; SOURCE LINE # 1681
                                           ; SOURCE LINE # 1682
031A 22                RET     
031B         ?C0349:
                                           ; SOURCE LINE # 1683
                                           ; SOURCE LINE # 1684
031B E4                CLR     A
031C FF                MOV     R7,A
031D FE                MOV     R6,A
031E 120000      R     LCALL   _memStore
0321 EF                MOV     A,R7
0322 6006              JZ      ?C0353
                                           ; SOURCE LINE # 1685
0324 7F01              MOV     R7,#01H
0326 120000      R     LCALL   _sendAcknowledgment
                                           ; SOURCE LINE # 1686
0329 22                RET     
032A         ?C0353:
                                           ; SOURCE LINE # 1687
032A E4                CLR     A
032B FF                MOV     R7,A
032C 120000      R     LCALL   _sendAcknowledgment
C51 COMPILER V9.51   COMMAND_PROCESSING                                                    02/07/2017 16:12:02 PAGE 207 

                                           ; SOURCE LINE # 1688
                                           ; SOURCE LINE # 1689
                                           ; SOURCE LINE # 1690
032F         ?C0355:
032F 22                RET     
             ; FUNCTION cmd_store_params (END)

             ; FUNCTION cmd_set_baudrate (BEGIN)
                                           ; SOURCE LINE # 1692
                                           ; SOURCE LINE # 1695
0000 900000      E     MOV     DPTR,#g_rx+01H
0003 E0                MOVX    A,@DPTR
0004 900000      E     MOV     DPTR,#c_mem+06CH
0007 F0                MOVX    @DPTR,A
                                           ; SOURCE LINE # 1697
0008 24F3              ADD     A,#0F3H
000A 700A              JNZ     ?C0358
                                           ; SOURCE LINE # 1698
000C         ?C0357:
                                           ; SOURCE LINE # 1699
000C 7D01              MOV     R5,#01H
000E 7F0C              MOV     R7,#0CH
0010 7E00              MOV     R6,#00H
0012 120000      E     LCALL   _CLOCK_UART_SetDividerRegister
                                           ; SOURCE LINE # 1700
0015 22                RET     
                                           ; SOURCE LINE # 1701
0016         ?C0358:
                                           ; SOURCE LINE # 1702
0016 7D01              MOV     R5,#01H
0018 7F02              MOV     R7,#02H
001A 7E00              MOV     R6,#00H
001C 120000      E     LCALL   _CLOCK_UART_SetDividerRegister
                                           ; SOURCE LINE # 1703
                                           ; SOURCE LINE # 1704
001F         ?C0359:
001F 22                RET     
             ; FUNCTION cmd_set_baudrate (END)



MODULE INFORMATION:   STATIC OVERLAYABLE
   CODE SIZE        =  15462    ----
   CONSTANT SIZE    =   3843    ----
   XDATA SIZE       =      2    4222
   PDATA SIZE       =   ----    ----
   DATA SIZE        =   ----      20
   IDATA SIZE       =   ----    ----
   BIT SIZE         =   ----    ----
   EDATA SIZE       =   ----    ----
   HDATA SIZE       =   ----    ----
   XDATA CONST SIZE =   ----    ----
   FAR CONST SIZE   =   ----    ----
END OF MODULE INFORMATION.


C51 COMPILATION COMPLETE.  0 WARNING(S),  0 ERROR(S)
